(dp0
Vresponse
p1
(dp2
VtermsofService
p3
Vhttp://www.wunderground.com/weather/api/d/terms.html
p4
sVversion
p5
V0.1
p6
sVfeatures
p7
(dp8
Vforecast10day
p9
I1
sssVforecast
p10
(dp11
Vtxt_forecast
p12
(dp13
Vdate
p14
V7:46 PM EST
p15
sVforecastday
p16
(lp17
(dp18
Vtitle
p19
VWednesday
p20
sVicon_url
p21
Vhttp://icons.wxug.com/i/c/k/cloudy.gif
p22
sVfcttext_metric
p23
VMostly cloudy. Low -2C.
p24
sVperiod
p25
I0
sVpop
p26
V10
p27
sVfcttext
p28
VMostly cloudy. Lows overnight in the upper 20s.
p29
sVicon
p30
Vcloudy
p31
sa(dp32
g19
VWednesday Night
p33
sg21
Vhttp://icons.wxug.com/i/c/k/nt_cloudy.gif
p34
sg23
VOvercast. Some sleet or freezing rain possible. Low -2C. Winds light and variable.
p35
sg25
I1
sg26
V10
p36
sg28
VCloudy. Some sleet or freezing rain possible. Low 29F. Winds light and variable.
p37
sg30
Vnt_cloudy
p38
sa(dp39
g19
VThursday
p40
sg21
Vhttp://icons.wxug.com/i/c/k/chancerain.gif
p41
sg23
VCloudy skies with periods of light rain later in the day. High 7C. Winds light and variable. Chance of rain 70%.
p42
sg25
I2
sg26
V70
p43
sg28
VCloudy with light rain developing later in the day. High 46F. Winds light and variable. Chance of rain 70%.
p44
sg30
Vchancerain
p45
sa(dp46
g19
VThursday Night
p47
sg21
Vhttp://icons.wxug.com/i/c/k/nt_chancerain.gif
p48
sg23
VRain showers early with mostly cloudy conditions late. Low 1C. Winds light and variable. Chance of rain 40%.
p49
sg25
I3
sg26
V40
p50
sg28
VRain showers early with mostly cloudy conditions late. Low near 35F. Winds light and variable. Chance of rain 40%.
p51
sg30
Vnt_chancerain
p52
sa(dp53
g19
VFriday
p54
sg21
Vhttp://icons.wxug.com/i/c/k/chancerain.gif
p55
sg23
VCloudy skies with a few showers later in the day. High near 10C. Winds light and variable. Chance of rain 30%.
p56
sg25
I4
sg26
V30
p57
sg28
VCloudy skies early. A few showers developing later in the day. High around 50F. Winds light and variable. Chance of rain 30%.
p58
sg30
Vchancerain
p59
sa(dp60
g19
VFriday Night
p61
sg21
Vhttp://icons.wxug.com/i/c/k/nt_chancerain.gif
p62
sg23
VCloudy early with partial clearing expected late. Low 2C. Winds light and variable.
p63
sg25
I5
sg26
V30
p64
sg28
VChance of a shower or two during the evening, followed by partly cloudy skies late. Low 37F. Winds light and variable. Chance of rain 30%.
p65
sg30
Vnt_chancerain
p66
sa(dp67
g19
VSaturday
p68
sg21
Vhttp://icons.wxug.com/i/c/k/partlycloudy.gif
p69
sg23
VIntervals of clouds and sunshine. High 9C. Winds WNW at 15 to 25 km/h.
p70
sg25
I6
sg26
V10
p71
sg28
VPartly cloudy. High 49F. Winds WNW at 10 to 15 mph.
p72
sg30
Vpartlycloudy
p73
sa(dp74
g19
VSaturday Night
p75
sg21
Vhttp://icons.wxug.com/i/c/k/nt_partlycloudy.gif
p76
sg23
VA few clouds. Low near 0C. Winds WNW at 10 to 15 km/h.
p77
sg25
I7
sg26
V10
p78
sg28
VPartly cloudy skies. Low 32F. Winds WNW at 5 to 10 mph.
p79
sg30
Vnt_partlycloudy
p80
sa(dp81
g19
VSunday
p82
sg21
Vhttp://icons.wxug.com/i/c/k/partlycloudy.gif
p83
sg23
VPartly cloudy. High 6C. Winds NW at 15 to 25 km/h.
p84
sg25
I8
sg26
V0
p85
sg28
VPartly cloudy. High 44F. Winds NW at 10 to 15 mph.
p86
sg30
Vpartlycloudy
p87
sa(dp88
g19
VSunday Night
p89
sg21
Vhttp://icons.wxug.com/i/c/k/nt_clear.gif
p90
sg23
VA mostly clear sky. Low around -5C. Winds WNW at 10 to 15 km/h.
p91
sg25
I9
sg26
V10
p92
sg28
VClear. Low 24F. Winds WNW at 5 to 10 mph.
p93
sg30
Vnt_clear
p94
sa(dp95
g19
VMonday
p96
sg21
Vhttp://icons.wxug.com/i/c/k/clear.gif
p97
sg23
VGenerally sunny despite a few afternoon clouds. High 8C. Winds light and variable.
p98
sg25
I10
sg26
V10
p99
sg28
VExcept for a few afternoon clouds, mainly sunny. High 47F. Winds W at 5 to 10 mph.
p100
sg30
Vclear
p101
sa(dp102
g19
VMonday Night
p103
sg21
Vhttp://icons.wxug.com/i/c/k/nt_cloudy.gif
p104
sg23
VOvercast. Low around 0C. Winds light and variable.
p105
sg25
I11
sg26
V20
p106
sg28
VOvercast. Low 32F. Winds light and variable.
p107
sg30
Vnt_cloudy
p108
sa(dp109
g19
VTuesday
p110
sg21
Vhttp://icons.wxug.com/i/c/k/chancerain.gif
p111
sg23
VCloudy in the morning, then off and on rain showers during the afternoon hours. High 13C. Winds SSW at 10 to 15 km/h. Chance of rain 60%.
p112
sg25
I12
sg26
V60
p113
sg28
VConsiderable cloudiness. Occasional rain showers in the afternoon. High 56F. Winds SSW at 5 to 10 mph. Chance of rain 60%.
p114
sg30
Vchancerain
p115
sa(dp116
g19
VTuesday Night
p117
sg21
Vhttp://icons.wxug.com/i/c/k/nt_chancerain.gif
p118
sg23
VConsiderable cloudiness with occasional rain showers. Low 8C. Winds S at 10 to 15 km/h. Chance of rain 60%.
p119
sg25
I13
sg26
V60
p120
sg28
VConsiderable cloudiness with occasional rain showers. Low 46F. Winds S at 5 to 10 mph. Chance of rain 60%.
p121
sg30
Vnt_chancerain
p122
sa(dp123
g19
VWednesday
p124
sg21
Vhttp://icons.wxug.com/i/c/k/chancerain.gif
p125
sg23
VOvercast with rain showers at times. High around 15C. Winds SSW at 15 to 30 km/h. Chance of rain 60%.
p126
sg25
I14
sg26
V60
p127
sg28
VCloudy with showers. High near 60F. Winds SSW at 10 to 20 mph. Chance of rain 60%.
p128
sg30
Vchancerain
p129
sa(dp130
g19
VWednesday Night
p131
sg21
Vhttp://icons.wxug.com/i/c/k/nt_chancerain.gif
p132
sg23
VShowers early becoming less numerous late. Low 4C. Winds WSW at 15 to 25 km/h. Chance of rain 60%.
p133
sg25
I15
sg26
V60
p134
sg28
VRain showers in the evening becoming more intermittent overnight. Low near 40F. Winds WSW at 10 to 15 mph. Chance of rain 60%.
p135
sg30
Vnt_chancerain
p136
sa(dp137
g19
VThursday
p138
sg21
Vhttp://icons.wxug.com/i/c/k/chancerain.gif
p139
sg23
VA shower or two around the area in the morning, then partly cloudy in the afternoon. High around 10C. Winds W at 10 to 15 km/h. Chance of rain 30%.
p140
sg25
I16
sg26
V30
p141
sg28
VA shower or two possible early with partly cloudy skies in the afternoon. High 51F. Winds W at 10 to 15 mph. Chance of rain 30%.
p142
sg30
Vchancerain
p143
sa(dp144
g19
VThursday Night
p145
sg21
Vhttp://icons.wxug.com/i/c/k/nt_clear.gif
p146
sg23
VClear skies. Low -1C. Winds light and variable.
p147
sg25
I17
sg26
V10
p148
sg28
VClear skies. Low 31F. Winds light and variable.
p149
sg30
Vnt_clear
p150
sa(dp151
g19
VFriday
p152
sg21
Vhttp://icons.wxug.com/i/c/k/partlycloudy.gif
p153
sg23
VSunshine and clouds mixed. High 9C. Winds W at 10 to 15 km/h.
p154
sg25
I18
sg26
V10
p155
sg28
VSunshine and clouds mixed. High 48F. Winds W at 10 to 15 mph.
p156
sg30
Vpartlycloudy
p157
sa(dp158
g19
VFriday Night
p159
sg21
Vhttp://icons.wxug.com/i/c/k/nt_clear.gif
p160
sg23
VMainly clear skies. Low -3C. Winds light and variable.
p161
sg25
I19
sg26
V20
p162
sg28
VMainly clear skies. Low 28F. Winds light and variable.
p163
sg30
Vnt_clear
p164
sassVsimpleforecast
p165
(dp166
g16
(lp167
(dp168
Vavehumidity
p169
I73
sVmaxhumidity
p170
I0
sVavewind
p171
(dp172
Vkph
p173
I0
sVdegrees
p174
I347
sVdir
p175
VNNW
p176
sVmph
p177
I0
ssg21
Vhttp://icons.wxug.com/i/c/k/cloudy.gif
p178
sVsnow_allday
p179
(dp180
Vcm
p181
F0.0
sVin
p182
F0.0
ssVmaxwind
p183
(dp184
g173
I10
sg174
I0
sg175
V
p185
sg177
I6
ssVminhumidity
p186
I0
sg25
I1
sg26
I10
sVskyicon
p187
g185
sVhigh
p188
(dp189
Vfahrenheit
p190
V43
p191
sVcelsius
p192
V6
p193
ssVqpf_night
p194
(dp195
Vmm
p196
I0
sg182
F0.0
ssVqpf_allday
p197
(dp198
g196
I0
sg182
F0.0
ssVlow
p199
(dp200
g190
V29
p201
sg192
V-2
p202
ssVsnow_night
p203
(dp204
g181
F0.0
sg182
F0.0
ssg14
(dp205
Vtz_short
p206
VEST
p207
sVweekday_short
p208
VWed
p209
sVisdst
p210
g85
sVmonthname
p211
VNovember
p212
sVhour
p213
I19
sVmin
p214
V00
p215
sVampm
p216
VPM
p217
sVtz_long
p218
VAmerica/New_York
p219
sVmonth
p220
I11
sVepoch
p221
V1479945600
p222
sVsec
p223
I0
sVweekday
p224
VWednesday
p225
sVpretty
p226
V7:00 PM EST on November 23, 2016
p227
sVyear
p228
I2016
sVyday
p229
I327
sVday
p230
I23
sVmonthname_short
p231
VNov
p232
ssVsnow_day
p233
(dp234
g181
Nsg182
NssVqpf_day
p235
(dp236
g196
Nsg182
NssVconditions
p237
VOvercast
p238
sg30
Vcloudy
p239
sa(dp240
g169
I70
sg170
I0
sg171
(dp241
g173
I6
sg174
I90
sg175
VE
p242
sg177
I4
ssg21
Vhttp://icons.wxug.com/i/c/k/chancerain.gif
p243
sg179
(dp244
g181
F0.0
sg182
F0.0
ssg183
(dp245
g173
I8
sg174
I90
sg175
g242
sg177
I5
ssg186
I0
sg25
I2
sg26
I70
sg187
g185
sg188
(dp246
g190
V46
p247
sg192
V8
p248
ssg194
(dp249
g196
I1
sg182
F0.02
ssg197
(dp250
g196
I2
sg182
F0.08
ssg199
(dp251
g190
V35
p252
sg192
V2
p253
ssg203
(dp254
g181
F0.0
sg182
F0.0
ssg14
(dp255
g206
VEST
p256
sg208
VThu
p257
sg210
g85
sg211
VNovember
p258
sg213
I19
sg214
V00
p259
sg216
VPM
p260
sg218
VAmerica/New_York
p261
sg220
I11
sg221
V1480032000
p262
sg223
I0
sg224
VThursday
p263
sg226
V7:00 PM EST on November 24, 2016
p264
sg228
I2016
sg229
I328
sg230
I24
sg231
VNov
p265
ssg233
(dp266
g181
F0.0
sg182
F0.0
ssg235
(dp267
g196
I2
sg182
F0.06
ssg237
VChance of Rain
p268
sg30
Vchancerain
p269
sa(dp270
g169
I84
sg170
I0
sg171
(dp271
g173
I5
sg174
I220
sg175
VSW
p272
sg177
I3
ssg21
Vhttp://icons.wxug.com/i/c/k/chancerain.gif
p273
sg179
(dp274
g181
F0.0
sg182
F0.0
ssg183
(dp275
g173
I8
sg174
I220
sg175
VSW
p276
sg177
I5
ssg186
I0
sg25
I3
sg26
I30
sg187
g185
sg188
(dp277
g190
V50
p278
sg192
V10
p279
ssg194
(dp280
g196
I0
sg182
F0.01
ssg197
(dp281
g196
I1
sg182
F0.02
ssg199
(dp282
g190
V37
p283
sg192
V3
p284
ssg203
(dp285
g181
F0.0
sg182
F0.0
ssg14
(dp286
g206
VEST
p287
sg208
VFri
p288
sg210
g85
sg211
VNovember
p289
sg213
I19
sg214
V00
p290
sg216
VPM
p291
sg218
VAmerica/New_York
p292
sg220
I11
sg221
V1480118400
p293
sg223
I0
sg224
VFriday
p294
sg226
V7:00 PM EST on November 25, 2016
p295
sg228
I2016
sg229
I329
sg230
I25
sg231
VNov
p296
ssg233
(dp297
g181
F0.0
sg182
F0.0
ssg235
(dp298
g196
I0
sg182
F0.01
ssg237
VChance of Rain
p299
sg30
Vchancerain
p300
sa(dp301
g169
I70
sg170
I0
sg171
(dp302
g173
I16
sg174
I302
sg175
VWNW
p303
sg177
I10
ssg21
Vhttp://icons.wxug.com/i/c/k/partlycloudy.gif
p304
sg179
(dp305
g181
F0.0
sg182
F0.0
ssg183
(dp306
g173
I24
sg174
I302
sg175
VWNW
p307
sg177
I15
ssg186
I0
sg25
I4
sg26
I10
sg187
g185
sg188
(dp308
g190
V49
p309
sg192
V9
p310
ssg194
(dp311
g196
I0
sg182
F0.0
ssg197
(dp312
g196
I0
sg182
F0.0
ssg199
(dp313
g190
V32
p314
sg192
g85
ssg203
(dp315
g181
F0.0
sg182
F0.0
ssg14
(dp316
g206
VEST
p317
sg208
VSat
p318
sg210
g85
sg211
VNovember
p319
sg213
I19
sg214
V00
p320
sg216
VPM
p321
sg218
VAmerica/New_York
p322
sg220
I11
sg221
V1480204800
p323
sg223
I0
sg224
VSaturday
p324
sg226
V7:00 PM EST on November 26, 2016
p325
sg228
I2016
sg229
I330
sg230
I26
sg231
VNov
p326
ssg233
(dp327
g181
F0.0
sg182
F0.0
ssg235
(dp328
g196
I0
sg182
F0.0
ssg237
VPartly Cloudy
p329
sg30
Vpartlycloudy
p330
sa(dp331
g169
I60
sg170
I0
sg171
(dp332
g173
I19
sg174
I310
sg175
VNW
p333
sg177
I12
ssg21
Vhttp://icons.wxug.com/i/c/k/partlycloudy.gif
p334
sg179
(dp335
g181
F0.0
sg182
F0.0
ssg183
(dp336
g173
I24
sg174
I310
sg175
VNW
p337
sg177
I15
ssg186
I0
sg25
I5
sg26
I0
sg187
g185
sg188
(dp338
g190
V44
p339
sg192
V7
p340
ssg194
(dp341
g196
I0
sg182
F0.0
ssg197
(dp342
g196
I0
sg182
F0.0
ssg199
(dp343
g190
V24
p344
sg192
V-4
p345
ssg203
(dp346
g181
F0.0
sg182
F0.0
ssg14
(dp347
g206
VEST
p348
sg208
VSun
p349
sg210
g85
sg211
VNovember
p350
sg213
I19
sg214
V00
p351
sg216
VPM
p352
sg218
VAmerica/New_York
p353
sg220
I11
sg221
V1480291200
p354
sg223
I0
sg224
VSunday
p355
sg226
V7:00 PM EST on November 27, 2016
p356
sg228
I2016
sg229
I331
sg230
I27
sg231
VNov
p357
ssg233
(dp358
g181
F0.0
sg182
F0.0
ssg235
(dp359
g196
I0
sg182
F0.0
ssg237
VPartly Cloudy
p360
sg30
Vpartlycloudy
p361
sa(dp362
g169
I62
sg170
I0
sg171
(dp363
g173
I10
sg174
I270
sg175
VW
p364
sg177
I6
ssg21
Vhttp://icons.wxug.com/i/c/k/clear.gif
p365
sg179
(dp366
g181
F0.0
sg182
F0.0
ssg183
(dp367
g173
I16
sg174
I270
sg175
g364
sg177
I10
ssg186
I0
sg25
I6
sg26
I10
sg187
g185
sg188
(dp368
g190
V47
p369
sg192
g248
ssg194
(dp370
g196
I0
sg182
F0.0
ssg197
(dp371
g196
I0
sg182
F0.0
ssg199
(dp372
g190
V32
p373
sg192
g85
ssg203
(dp374
g181
F0.0
sg182
F0.0
ssg14
(dp375
g206
VEST
p376
sg208
VMon
p377
sg210
g85
sg211
VNovember
p378
sg213
I19
sg214
V00
p379
sg216
VPM
p380
sg218
VAmerica/New_York
p381
sg220
I11
sg221
V1480377600
p382
sg223
I0
sg224
VMonday
p383
sg226
V7:00 PM EST on November 28, 2016
p384
sg228
I2016
sg229
I332
sg230
I28
sg231
VNov
p385
ssg233
(dp386
g181
F0.0
sg182
F0.0
ssg235
(dp387
g196
I0
sg182
F0.0
ssg237
VClear
p388
sg30
Vclear
p389
sa(dp390
g169
I69
sg170
I0
sg171
(dp391
g173
I11
sg174
I204
sg175
VSSW
p392
sg177
I7
ssg21
Vhttp://icons.wxug.com/i/c/k/chancerain.gif
p393
sg179
(dp394
g181
F0.0
sg182
F0.0
ssg183
(dp395
g173
I16
sg174
I204
sg175
VSSW
p396
sg177
I10
ssg186
I0
sg25
I7
sg26
I60
sg187
g185
sg188
(dp397
g190
V56
p398
sg192
V13
p399
ssg194
(dp400
g196
I4
sg182
F0.14
ssg197
(dp401
g196
I5
sg182
F0.19
ssg199
(dp402
g190
V46
p403
sg192
g248
ssg203
(dp404
g181
F0.0
sg182
F0.0
ssg14
(dp405
g206
VEST
p406
sg208
VTue
p407
sg210
g85
sg211
VNovember
p408
sg213
I19
sg214
V00
p409
sg216
VPM
p410
sg218
VAmerica/New_York
p411
sg220
I11
sg221
V1480464000
p412
sg223
I0
sg224
VTuesday
p413
sg226
V7:00 PM EST on November 29, 2016
p414
sg228
I2016
sg229
I333
sg230
I29
sg231
VNov
p415
ssg233
(dp416
g181
F0.0
sg182
F0.0
ssg235
(dp417
g196
I1
sg182
F0.05
ssg237
VChance of Rain
p418
sg30
Vchancerain
p419
sa(dp420
g169
I87
sg170
I0
sg171
(dp421
g173
I26
sg174
I193
sg175
VSSW
p422
sg177
I16
ssg21
Vhttp://icons.wxug.com/i/c/k/chancerain.gif
p423
sg179
(dp424
g181
F0.0
sg182
F0.0
ssg183
(dp425
g173
I32
sg174
I193
sg175
VSSW
p426
sg177
I20
ssg186
I0
sg25
I8
sg26
I60
sg187
g185
sg188
(dp427
g190
V60
p428
sg192
V16
p429
ssg194
(dp430
g196
I5
sg182
F0.18
ssg197
(dp431
g196
I15
sg182
F0.6
ssg199
(dp432
g190
V40
p433
sg192
V4
p434
ssg203
(dp435
g181
F0.0
sg182
F0.0
ssg14
(dp436
g206
VEST
p437
sg208
VWed
p438
sg210
g85
sg211
VNovember
p439
sg213
I19
sg214
V00
p440
sg216
VPM
p441
sg218
VAmerica/New_York
p442
sg220
I11
sg221
V1480550400
p443
sg223
I0
sg224
VWednesday
p444
sg226
V7:00 PM EST on November 30, 2016
p445
sg228
I2016
sg229
I334
sg230
I30
sg231
VNov
p446
ssg233
(dp447
g181
F0.0
sg182
F0.0
ssg235
(dp448
g196
I11
sg182
F0.42
ssg237
VChance of Rain
p449
sg30
Vchancerain
p450
sa(dp451
g169
I62
sg170
I0
sg171
(dp452
g173
I16
sg174
I270
sg175
g364
sg177
I10
ssg21
Vhttp://icons.wxug.com/i/c/k/chancerain.gif
p453
sg179
(dp454
g181
F0.0
sg182
F0.0
ssg183
(dp455
g173
I24
sg174
I270
sg175
g364
sg177
I15
ssg186
I0
sg25
I9
sg26
I30
sg187
g185
sg188
(dp456
g190
V51
p457
sg192
V11
p458
ssg194
(dp459
g196
I0
sg182
F0.0
ssg197
(dp460
g196
I1
sg182
F0.04
ssg199
(dp461
g190
V31
p462
sg192
V-1
p463
ssg203
(dp464
g181
F0.0
sg182
F0.0
ssg14
(dp465
g206
VEST
p466
sg208
VThu
p467
sg210
g85
sg211
VDecember
p468
sg213
I19
sg214
V00
p469
sg216
VPM
p470
sg218
VAmerica/New_York
p471
sg220
I12
sg221
V1480636800
p472
sg223
I0
sg224
VThursday
p473
sg226
V7:00 PM EST on December 01, 2016
p474
sg228
I2016
sg229
I335
sg230
I1
sg231
VDec
p475
ssg233
(dp476
g181
F0.0
sg182
F0.0
ssg235
(dp477
g196
I1
sg182
F0.04
ssg237
VChance of Rain
p478
sg30
Vchancerain
p479
sa(dp480
g169
I62
sg170
I0
sg171
(dp481
g173
I16
sg174
I273
sg175
g364
sg177
I10
ssg21
Vhttp://icons.wxug.com/i/c/k/partlycloudy.gif
p482
sg179
(dp483
g181
F0.0
sg182
F0.0
ssg183
(dp484
g173
I24
sg174
I273
sg175
g364
sg177
I15
ssg186
I0
sg25
I10
sg26
I10
sg187
g185
sg188
(dp485
g190
V48
p486
sg192
g310
ssg194
(dp487
g196
I0
sg182
F0.0
ssg197
(dp488
g196
I0
sg182
F0.0
ssg199
(dp489
g190
V28
p490
sg192
V-2
p491
ssg203
(dp492
g181
F0.0
sg182
F0.0
ssg14
(dp493
g206
VEST
p494
sg208
VFri
p495
sg210
g85
sg211
VDecember
p496
sg213
I19
sg214
V00
p497
sg216
VPM
p498
sg218
VAmerica/New_York
p499
sg220
I12
sg221
V1480723200
p500
sg223
I0
sg224
VFriday
p501
sg226
V7:00 PM EST on December 02, 2016
p502
sg228
I2016
sg229
I336
sg230
I2
sg231
VDec
p503
ssg233
(dp504
g181
F0.0
sg182
F0.0
ssg235
(dp505
g196
I0
sg182
F0.0
ssg237
VPartly Cloudy
p506
sg30
Vpartlycloudy
p507
sasss.