(dp0
S'wu'
p1
(lp2
(dp3
S'rain'
p4
I10
sS'date'
p5
cdatetime
date
p6
(S'\x07\xe0\x0b\x17'
p7
tp8
Rp9
sS'day'
p10
VWednesday
p11
sS'temp'
p12
I43
sa(dp13
g4
I70
sg5
g6
(S'\x07\xe0\x0b\x18'
p14
tp15
Rp16
sg10
VThursday
p17
sg12
I46
sa(dp18
g4
I30
sg5
g6
(S'\x07\xe0\x0b\x19'
p19
tp20
Rp21
sg10
VFriday
p22
sg12
I50
sa(dp23
g4
I10
sg5
g6
(S'\x07\xe0\x0b\x1a'
p24
tp25
Rp26
sg10
VSaturday
p27
sg12
I49
sa(dp28
g4
I0
sg5
g6
(S'\x07\xe0\x0b\x1b'
p29
tp30
Rp31
sg10
VSunday
p32
sg12
I44
sa(dp33
g4
I10
sg5
g6
(S'\x07\xe0\x0b\x1c'
p34
tp35
Rp36
sg10
VMonday
p37
sg12
I47
sa(dp38
g4
I60
sg5
g6
(S'\x07\xe0\x0b\x1d'
p39
tp40
Rp41
sg10
VTuesday
p42
sg12
I56
sa(dp43
g4
I60
sg5
g6
(S'\x07\xe0\x0b\x1e'
p44
tp45
Rp46
sg10
VWednesday
p47
sg12
I60
sa(dp48
g4
I30
sg5
g6
(S'\x07\xe0\x0c\x01'
p49
tp50
Rp51
sg10
VThursday
p52
sg12
I51
sasS'fore'
p53
(lp54
(dp55
g4
I0
sg5
g6
(S'\x07\xe0\x0b\x17'
p56
tp57
Rp58
sg10
S'Wednesday'
p59
sg12
I42
sa(dp60
g4
I13
sg5
g6
(S'\x07\xe0\x0b\x18'
p61
tp62
Rp63
sg10
S'Thursday'
p64
sg12
I44
sa(dp65
g4
I3
sg5
g6
(S'\x07\xe0\x0b\x19'
p66
tp67
Rp68
sg10
S'Friday'
p69
sg12
I48
sa(dp70
g4
I13
sg5
g6
(S'\x07\xe0\x0b\x1a'
p71
tp72
Rp73
sg10
S'Saturday'
p74
sg12
I48
sa(dp75
g4
I7
sg5
g6
(S'\x07\xe0\x0b\x1b'
p76
tp77
Rp78
sg10
S'Sunday'
p79
sg12
I44
sa(dp80
g4
I0
sg5
g6
(S'\x07\xe0\x0b\x1c'
p81
tp82
Rp83
sg10
S'Monday'
p84
sg12
I48
sa(dp85
g4
I32
sg5
g6
(S'\x07\xe0\x0b\x1d'
p86
tp87
Rp88
sg10
S'Tuesday'
p89
sg12
I54
sa(dp90
g4
I85
sg5
g6
(S'\x07\xe0\x0b\x1e'
p91
tp92
Rp93
sg10
S'Wednesday'
p94
sg12
I61
sasS'noaa'
p95
(lp96
(dp97
g5
g6
(S'\x07\xe0\x0b\x18'
p98
tp99
Rp100
sg4
I41
sg10
S'Thursday'
p101
sg12
I41
sa(dp102
g5
g6
(S'\x07\xe0\x0b\x19'
p103
tp104
Rp105
sg4
I28
sg10
S'Friday'
p106
sg12
I45
sa(dp107
g5
g6
(S'\x07\xe0\x0b\x1a'
p108
tp109
Rp110
sg4
I28
sg10
S'Saturday'
p111
sg12
I48
sa(dp112
g5
g6
(S'\x07\xe0\x0b\x1b'
p113
tp114
Rp115
sg4
I8
sg10
S'Sunday'
p116
sg12
I44
sa(dp117
g5
g6
(S'\x07\xe0\x0b\x1c'
p118
tp119
Rp120
sg4
I3
sg10
S'Monday'
p121
sg12
I46
sa(dp122
g5
g6
(S'\x07\xe0\x0b\x1d'
p123
tp124
Rp125
sg4
I40
sg10
S'Tuesday'
p126
sg12
I50
sa(dp127
g5
g6
(S'\x07\xe0\x0b\x1e'
p128
tp129
Rp130
sg4
I53
sg10
S'Wednesday'
p131
sg12
I57
sas.