ccopy_reg
_reconstructor
p0
(cxml.etree.ElementTree
Element
p1
c__builtin__
object
p2
Ntp3
Rp4
(dp5
S'text'
p6
S'\n  '
p7
sS'attrib'
p8
(dp9
S'{http://www.w3.org/2001/XMLSchema-instance}noNamespaceSchemaLocation'
p10
S'http://www.nws.noaa.gov/forecasts/xml/DWMLgen/schema/DWML.xsd'
p11
sS'version'
p12
S'1.0'
p13
ssS'tag'
p14
S'dwml'
p15
sS'_children'
p16
(lp17
g0
(g1
g2
Ntp18
Rp19
(dp20
g6
S'\n    '
p21
sg8
(dp22
sg14
S'head'
p23
sS'tail'
p24
S'\n  '
p25
sg16
(lp26
g0
(g1
g2
Ntp27
Rp28
(dp29
g6
S'\n      '
p30
sg8
(dp31
S'srsName'
p32
S'WGS 1984'
p33
sS'concise-name'
p34
S'dwmlByDay'
p35
sS'operational-mode'
p36
S'official'
p37
ssg14
S'product'
p38
sg24
S'\n    '
p39
sg16
(lp40
g0
(g1
g2
Ntp41
Rp42
(dp43
g6
S"NOAA's National Weather Service Forecast by 24 Hour Period"
p44
sg8
(dp45
sg14
S'title'
p46
sg24
S'\n      '
p47
sg16
(lp48
sbag0
(g1
g2
Ntp49
Rp50
(dp51
g6
S'meteorological'
p52
sg8
(dp53
sg14
S'field'
p54
sg24
S'\n      '
p55
sg16
(lp56
sbag0
(g1
g2
Ntp57
Rp58
(dp59
g6
S'forecast'
p60
sg8
(dp61
sg14
S'category'
p62
sg24
S'\n      '
p63
sg16
(lp64
sbag0
(g1
g2
Ntp65
Rp66
(dp67
g6
S'2016-11-24T02:09:21Z'
p68
sg8
(dp69
S'refresh-frequency'
p70
S'PT1H'
p71
ssg14
S'creation-date'
p72
sg24
S'\n    '
p73
sg16
(lp74
sbasbag0
(g1
g2
Ntp75
Rp76
(dp77
g6
S'\n      '
p78
sg8
(dp79
sg14
S'source'
p80
sg24
S'\n  '
p81
sg16
(lp82
g0
(g1
g2
Ntp83
Rp84
(dp85
g6
S'http://www.nws.noaa.gov/forecasts/xml/'
p86
sg8
(dp87
sg14
S'more-information'
p88
sg24
S'\n      '
p89
sg16
(lp90
sbag0
(g1
g2
Ntp91
Rp92
(dp93
g6
S'Meteorological Development Laboratory'
p94
sg8
(dp95
sg14
S'production-center'
p96
sg24
S'\n      '
p97
sg16
(lp98
g0
(g1
g2
Ntp99
Rp100
(dp101
g6
S'Product Generation Branch'
p102
sg8
(dp103
sg14
S'sub-center'
p104
sg16
(lp105
sbasbag0
(g1
g2
Ntp106
Rp107
(dp108
g6
S'http://www.nws.noaa.gov/disclaimer.html'
p109
sg8
(dp110
sg14
S'disclaimer'
p111
sg24
S'\n      '
p112
sg16
(lp113
sbag0
(g1
g2
Ntp114
Rp115
(dp116
g6
S'http://www.weather.gov/'
p117
sg8
(dp118
sg14
S'credit'
p119
sg24
S'\n      '
p120
sg16
(lp121
sbag0
(g1
g2
Ntp122
Rp123
(dp124
g6
S'http://www.weather.gov/images/xml_logo.gif'
p125
sg8
(dp126
sg14
S'credit-logo'
p127
sg24
S'\n      '
p128
sg16
(lp129
sbag0
(g1
g2
Ntp130
Rp131
(dp132
g6
S'http://www.weather.gov/feedback.php'
p133
sg8
(dp134
sg14
S'feedback'
p135
sg24
S'\n    '
p136
sg16
(lp137
sbasbasbag0
(g1
g2
Ntp138
Rp139
(dp140
g6
S'\n    '
p141
sg8
(dp142
sg14
S'data'
p143
sg24
S'\n'
p144
sg16
(lp145
g0
(g1
g2
Ntp146
Rp147
(dp148
g6
S'\n      '
p149
sg8
(dp150
sg14
S'location'
p151
sg24
S'\n    '
p152
sg16
(lp153
g0
(g1
g2
Ntp154
Rp155
(dp156
g6
S'point1'
p157
sg8
(dp158
sg14
S'location-key'
p159
sg24
S'\n      '
p160
sg16
(lp161
sbag0
(g1
g2
Ntp162
Rp163
(dp164
g8
(dp165
S'latitude'
p166
S'34.01'
p167
sS'longitude'
p168
S'-116.16'
p169
ssg14
S'point'
p170
sg24
S'\n    '
p171
sg16
(lp172
sbasbag0
(g1
g2
Ntp173
Rp174
(dp175
g6
S'http://forecast.weather.gov/MapClick.php?textField1=34.01&textField2=-116.16'
p176
sg8
(dp177
S'applicable-location'
p178
S'point1'
p179
ssg14
S'moreWeatherInformation'
p180
sg24
S'\n    '
p181
sg16
(lp182
sbag0
(g1
g2
Ntp183
Rp184
(dp185
g6
S'\n      '
p186
sg8
(dp187
S'summarization'
p188
S'24hourly'
p189
sS'time-coordinate'
p190
S'local'
p191
ssg14
S'time-layout'
p192
sg24
S'\n    '
p193
sg16
(lp194
g0
(g1
g2
Ntp195
Rp196
(dp197
g6
S'k-p24h-n7-1'
p198
sg8
(dp199
sg14
S'layout-key'
p200
sg24
S'\n      '
p201
sg16
(lp202
sbag0
(g1
g2
Ntp203
Rp204
(dp205
g6
S'2016-11-24T06:00:00-08:00'
p206
sg8
(dp207
sg14
S'start-valid-time'
p208
sg24
S'\n      '
p209
sg16
(lp210
sbag0
(g1
g2
Ntp211
Rp212
(dp213
g6
S'2016-11-25T06:00:00-08:00'
p214
sg8
(dp215
sg14
S'end-valid-time'
p216
sg24
S'\n      '
p217
sg16
(lp218
sbag0
(g1
g2
Ntp219
Rp220
(dp221
g6
S'2016-11-25T06:00:00-08:00'
p222
sg8
(dp223
sg14
g208
sg24
S'\n      '
p224
sg16
(lp225
sbag0
(g1
g2
Ntp226
Rp227
(dp228
g6
S'2016-11-26T06:00:00-08:00'
p229
sg8
(dp230
sg14
g216
sg24
S'\n      '
p231
sg16
(lp232
sbag0
(g1
g2
Ntp233
Rp234
(dp235
g6
S'2016-11-26T06:00:00-08:00'
p236
sg8
(dp237
sg14
g208
sg24
S'\n      '
p238
sg16
(lp239
sbag0
(g1
g2
Ntp240
Rp241
(dp242
g6
S'2016-11-27T06:00:00-08:00'
p243
sg8
(dp244
sg14
g216
sg24
S'\n      '
p245
sg16
(lp246
sbag0
(g1
g2
Ntp247
Rp248
(dp249
g6
S'2016-11-27T06:00:00-08:00'
p250
sg8
(dp251
sg14
g208
sg24
S'\n      '
p252
sg16
(lp253
sbag0
(g1
g2
Ntp254
Rp255
(dp256
g6
S'2016-11-28T06:00:00-08:00'
p257
sg8
(dp258
sg14
g216
sg24
S'\n      '
p259
sg16
(lp260
sbag0
(g1
g2
Ntp261
Rp262
(dp263
g6
S'2016-11-28T06:00:00-08:00'
p264
sg8
(dp265
sg14
g208
sg24
S'\n      '
p266
sg16
(lp267
sbag0
(g1
g2
Ntp268
Rp269
(dp270
g6
S'2016-11-29T06:00:00-08:00'
p271
sg8
(dp272
sg14
g216
sg24
S'\n      '
p273
sg16
(lp274
sbag0
(g1
g2
Ntp275
Rp276
(dp277
g6
S'2016-11-29T06:00:00-08:00'
p278
sg8
(dp279
sg14
g208
sg24
S'\n      '
p280
sg16
(lp281
sbag0
(g1
g2
Ntp282
Rp283
(dp284
g6
S'2016-11-30T06:00:00-08:00'
p285
sg8
(dp286
sg14
g216
sg24
S'\n      '
p287
sg16
(lp288
sbag0
(g1
g2
Ntp289
Rp290
(dp291
g6
S'2016-11-30T06:00:00-08:00'
p292
sg8
(dp293
sg14
g208
sg24
S'\n      '
p294
sg16
(lp295
sbag0
(g1
g2
Ntp296
Rp297
(dp298
g6
S'2016-12-01T06:00:00-08:00'
p299
sg8
(dp300
sg14
g216
sg24
S'\n    '
p301
sg16
(lp302
sbasbag0
(g1
g2
Ntp303
Rp304
(dp305
g6
S'\n      '
p306
sg8
(dp307
g188
S'12hourly'
p308
sg190
S'local'
p309
ssg14
g192
sg24
S'\n    '
p310
sg16
(lp311
g0
(g1
g2
Ntp312
Rp313
(dp314
g6
S'k-p12h-n14-2'
p315
sg8
(dp316
sg14
g200
sg24
S'\n      '
p317
sg16
(lp318
sbag0
(g1
g2
Ntp319
Rp320
(dp321
g6
S'2016-11-24T06:00:00-08:00'
p322
sg8
(dp323
sg14
g208
sg24
S'\n      '
p324
sg16
(lp325
sbag0
(g1
g2
Ntp326
Rp327
(dp328
g6
S'2016-11-24T18:00:00-08:00'
p329
sg8
(dp330
sg14
g216
sg24
S'\n      '
p331
sg16
(lp332
sbag0
(g1
g2
Ntp333
Rp334
(dp335
g6
S'2016-11-24T18:00:00-08:00'
p336
sg8
(dp337
sg14
g208
sg24
S'\n      '
p338
sg16
(lp339
sbag0
(g1
g2
Ntp340
Rp341
(dp342
g6
S'2016-11-25T06:00:00-08:00'
p343
sg8
(dp344
sg14
g216
sg24
S'\n      '
p345
sg16
(lp346
sbag0
(g1
g2
Ntp347
Rp348
(dp349
g6
S'2016-11-25T06:00:00-08:00'
p350
sg8
(dp351
sg14
g208
sg24
S'\n      '
p352
sg16
(lp353
sbag0
(g1
g2
Ntp354
Rp355
(dp356
g6
S'2016-11-25T18:00:00-08:00'
p357
sg8
(dp358
sg14
g216
sg24
S'\n      '
p359
sg16
(lp360
sbag0
(g1
g2
Ntp361
Rp362
(dp363
g6
S'2016-11-25T18:00:00-08:00'
p364
sg8
(dp365
sg14
g208
sg24
S'\n      '
p366
sg16
(lp367
sbag0
(g1
g2
Ntp368
Rp369
(dp370
g6
S'2016-11-26T06:00:00-08:00'
p371
sg8
(dp372
sg14
g216
sg24
S'\n      '
p373
sg16
(lp374
sbag0
(g1
g2
Ntp375
Rp376
(dp377
g6
S'2016-11-26T06:00:00-08:00'
p378
sg8
(dp379
sg14
g208
sg24
S'\n      '
p380
sg16
(lp381
sbag0
(g1
g2
Ntp382
Rp383
(dp384
g6
S'2016-11-26T18:00:00-08:00'
p385
sg8
(dp386
sg14
g216
sg24
S'\n      '
p387
sg16
(lp388
sbag0
(g1
g2
Ntp389
Rp390
(dp391
g6
S'2016-11-26T18:00:00-08:00'
p392
sg8
(dp393
sg14
g208
sg24
S'\n      '
p394
sg16
(lp395
sbag0
(g1
g2
Ntp396
Rp397
(dp398
g6
S'2016-11-27T06:00:00-08:00'
p399
sg8
(dp400
sg14
g216
sg24
S'\n      '
p401
sg16
(lp402
sbag0
(g1
g2
Ntp403
Rp404
(dp405
g6
S'2016-11-27T06:00:00-08:00'
p406
sg8
(dp407
sg14
g208
sg24
S'\n      '
p408
sg16
(lp409
sbag0
(g1
g2
Ntp410
Rp411
(dp412
g6
S'2016-11-27T18:00:00-08:00'
p413
sg8
(dp414
sg14
g216
sg24
S'\n      '
p415
sg16
(lp416
sbag0
(g1
g2
Ntp417
Rp418
(dp419
g6
S'2016-11-27T18:00:00-08:00'
p420
sg8
(dp421
sg14
g208
sg24
S'\n      '
p422
sg16
(lp423
sbag0
(g1
g2
Ntp424
Rp425
(dp426
g6
S'2016-11-28T06:00:00-08:00'
p427
sg8
(dp428
sg14
g216
sg24
S'\n      '
p429
sg16
(lp430
sbag0
(g1
g2
Ntp431
Rp432
(dp433
g6
S'2016-11-28T06:00:00-08:00'
p434
sg8
(dp435
sg14
g208
sg24
S'\n      '
p436
sg16
(lp437
sbag0
(g1
g2
Ntp438
Rp439
(dp440
g6
S'2016-11-28T18:00:00-08:00'
p441
sg8
(dp442
sg14
g216
sg24
S'\n      '
p443
sg16
(lp444
sbag0
(g1
g2
Ntp445
Rp446
(dp447
g6
S'2016-11-28T18:00:00-08:00'
p448
sg8
(dp449
sg14
g208
sg24
S'\n      '
p450
sg16
(lp451
sbag0
(g1
g2
Ntp452
Rp453
(dp454
g6
S'2016-11-29T06:00:00-08:00'
p455
sg8
(dp456
sg14
g216
sg24
S'\n      '
p457
sg16
(lp458
sbag0
(g1
g2
Ntp459
Rp460
(dp461
g6
S'2016-11-29T06:00:00-08:00'
p462
sg8
(dp463
sg14
g208
sg24
S'\n      '
p464
sg16
(lp465
sbag0
(g1
g2
Ntp466
Rp467
(dp468
g6
S'2016-11-29T18:00:00-08:00'
p469
sg8
(dp470
sg14
g216
sg24
S'\n      '
p471
sg16
(lp472
sbag0
(g1
g2
Ntp473
Rp474
(dp475
g6
S'2016-11-29T18:00:00-08:00'
p476
sg8
(dp477
sg14
g208
sg24
S'\n      '
p478
sg16
(lp479
sbag0
(g1
g2
Ntp480
Rp481
(dp482
g6
S'2016-11-30T06:00:00-08:00'
p483
sg8
(dp484
sg14
g216
sg24
S'\n      '
p485
sg16
(lp486
sbag0
(g1
g2
Ntp487
Rp488
(dp489
g6
S'2016-11-30T06:00:00-08:00'
p490
sg8
(dp491
sg14
g208
sg24
S'\n      '
p492
sg16
(lp493
sbag0
(g1
g2
Ntp494
Rp495
(dp496
g6
S'2016-11-30T18:00:00-08:00'
p497
sg8
(dp498
sg14
g216
sg24
S'\n      '
p499
sg16
(lp500
sbag0
(g1
g2
Ntp501
Rp502
(dp503
g6
S'2016-11-30T18:00:00-08:00'
p504
sg8
(dp505
sg14
g208
sg24
S'\n      '
p506
sg16
(lp507
sbag0
(g1
g2
Ntp508
Rp509
(dp510
g6
S'2016-12-01T06:00:00-08:00'
p511
sg8
(dp512
sg14
g216
sg24
S'\n    '
p513
sg16
(lp514
sbasbag0
(g1
g2
Ntp515
Rp516
(dp517
g6
S'\n      '
p518
sg8
(dp519
g188
S'24hourly'
p520
sg190
S'local'
p521
ssg14
g192
sg24
S'\n    '
p522
sg16
(lp523
g0
(g1
g2
Ntp524
Rp525
(dp526
g6
S'k-p7d-n1-3'
p527
sg8
(dp528
sg14
g200
sg24
S'\n      '
p529
sg16
(lp530
sbag0
(g1
g2
Ntp531
Rp532
(dp533
g6
S'2016-11-24T06:00:00-08:00'
p534
sg8
(dp535
sg14
g208
sg24
S'\n      '
p536
sg16
(lp537
sbag0
(g1
g2
Ntp538
Rp539
(dp540
g6
S'2016-12-01T06:00:00-08:00'
p541
sg8
(dp542
sg14
g216
sg24
S'\n    '
p543
sg16
(lp544
sbasbag0
(g1
g2
Ntp545
Rp546
(dp547
g6
S'\n      '
p548
sg8
(dp549
g178
S'point1'
p550
ssg14
S'parameters'
p551
sg24
S'\n  '
p552
sg16
(lp553
g0
(g1
g2
Ntp554
Rp555
(dp556
g6
S'\n        '
p557
sg8
(dp558
S'units'
p559
S'Fahrenheit'
p560
sS'type'
p561
S'maximum'
p562
sg192
S'k-p24h-n7-1'
p563
ssg14
S'temperature'
p564
sg24
S'\n      '
p565
sg16
(lp566
g0
(g1
g2
Ntp567
Rp568
(dp569
g6
S'Daily Maximum Temperature'
p570
sg8
(dp571
sg14
S'name'
p572
sg24
S'\n        '
p573
sg16
(lp574
sbag0
(g1
g2
Ntp575
Rp576
(dp577
g6
S'60'
p578
sg8
(dp579
sg14
S'value'
p580
sg24
S'\n        '
p581
sg16
(lp582
sbag0
(g1
g2
Ntp583
Rp584
(dp585
g6
S'64'
p586
sg8
(dp587
sg14
g580
sg24
S'\n        '
p588
sg16
(lp589
sbag0
(g1
g2
Ntp590
Rp591
(dp592
g6
S'61'
p593
sg8
(dp594
sg14
g580
sg24
S'\n        '
p595
sg16
(lp596
sbag0
(g1
g2
Ntp597
Rp598
(dp599
g6
S'51'
p600
sg8
(dp601
sg14
g580
sg24
S'\n        '
p602
sg16
(lp603
sbag0
(g1
g2
Ntp604
Rp605
(dp606
g6
S'52'
p607
sg8
(dp608
sg14
g580
sg24
S'\n        '
p609
sg16
(lp610
sbag0
(g1
g2
Ntp611
Rp612
(dp613
g6
S'52'
p614
sg8
(dp615
sg14
g580
sg24
S'\n        '
p616
sg16
(lp617
sbag0
(g1
g2
Ntp618
Rp619
(dp620
g6
S'56'
p621
sg8
(dp622
sg14
g580
sg24
S'\n      '
p623
sg16
(lp624
sbasbag0
(g1
g2
Ntp625
Rp626
(dp627
g6
S'\n        '
p628
sg8
(dp629
g559
S'Fahrenheit'
p630
sg561
S'minimum'
p631
sg192
S'k-p24h-n7-1'
p632
ssg14
g564
sg24
S'\n      '
p633
sg16
(lp634
g0
(g1
g2
Ntp635
Rp636
(dp637
g6
S'Daily Minimum Temperature'
p638
sg8
(dp639
sg14
g572
sg24
S'\n        '
p640
sg16
(lp641
sbag0
(g1
g2
Ntp642
Rp643
(dp644
g6
S'38'
p645
sg8
(dp646
sg14
g580
sg24
S'\n        '
p647
sg16
(lp648
sbag0
(g1
g2
Ntp649
Rp650
(dp651
g6
S'39'
p652
sg8
(dp653
sg14
g580
sg24
S'\n        '
p654
sg16
(lp655
sbag0
(g1
g2
Ntp656
Rp657
(dp658
g6
S'37'
p659
sg8
(dp660
sg14
g580
sg24
S'\n        '
p661
sg16
(lp662
sbag0
(g1
g2
Ntp663
Rp664
(dp665
g6
S'36'
p666
sg8
(dp667
sg14
g580
sg24
S'\n        '
p668
sg16
(lp669
sbag0
(g1
g2
Ntp670
Rp671
(dp672
g6
S'39'
p673
sg8
(dp674
sg14
g580
sg24
S'\n        '
p675
sg16
(lp676
sbag0
(g1
g2
Ntp677
Rp678
(dp679
g6
S'38'
p680
sg8
(dp681
sg14
g580
sg24
S'\n        '
p682
sg16
(lp683
sbag0
(g1
g2
Ntp684
Rp685
(dp686
g8
(dp687
S'{http://www.w3.org/2001/XMLSchema-instance}nil'
p688
S'true'
p689
ssg14
g580
sg24
S'\n      '
p690
sg16
(lp691
sbasbag0
(g1
g2
Ntp692
Rp693
(dp694
g6
S'\n        '
p695
sg8
(dp696
g559
S'percent'
p697
sg561
S'12 hour'
p698
sg192
S'k-p12h-n14-2'
p699
ssg14
S'probability-of-precipitation'
p700
sg24
S'\n      '
p701
sg16
(lp702
g0
(g1
g2
Ntp703
Rp704
(dp705
g6
S'12 Hourly Probability of Precipitation'
p706
sg8
(dp707
sg14
g572
sg24
S'\n        '
p708
sg16
(lp709
sbag0
(g1
g2
Ntp710
Rp711
(dp712
g6
S'0'
p713
sg8
(dp714
sg14
g580
sg24
S'\n        '
p715
sg16
(lp716
sbag0
(g1
g2
Ntp717
Rp718
(dp719
g6
S'0'
p720
sg8
(dp721
sg14
g580
sg24
S'\n        '
p722
sg16
(lp723
sbag0
(g1
g2
Ntp724
Rp725
(dp726
g6
S'0'
p727
sg8
(dp728
sg14
g580
sg24
S'\n        '
p729
sg16
(lp730
sbag0
(g1
g2
Ntp731
Rp732
(dp733
g6
S'0'
p734
sg8
(dp735
sg14
g580
sg24
S'\n        '
p736
sg16
(lp737
sbag0
(g1
g2
Ntp738
Rp739
(dp740
g6
S'4'
p741
sg8
(dp742
sg14
g580
sg24
S'\n        '
p743
sg16
(lp744
sbag0
(g1
g2
Ntp745
Rp746
(dp747
g6
S'9'
p748
sg8
(dp749
sg14
g580
sg24
S'\n        '
p750
sg16
(lp751
sbag0
(g1
g2
Ntp752
Rp753
(dp754
g6
S'30'
p755
sg8
(dp756
sg14
g580
sg24
S'\n        '
p757
sg16
(lp758
sbag0
(g1
g2
Ntp759
Rp760
(dp761
g6
S'18'
p762
sg8
(dp763
sg14
g580
sg24
S'\n        '
p764
sg16
(lp765
sbag0
(g1
g2
Ntp766
Rp767
(dp768
g6
S'2'
p769
sg8
(dp770
sg14
g580
sg24
S'\n        '
p771
sg16
(lp772
sbag0
(g1
g2
Ntp773
Rp774
(dp775
g6
S'2'
p776
sg8
(dp777
sg14
g580
sg24
S'\n        '
p778
sg16
(lp779
sbag0
(g1
g2
Ntp780
Rp781
(dp782
g6
S'2'
p783
sg8
(dp784
sg14
g580
sg24
S'\n        '
p785
sg16
(lp786
sbag0
(g1
g2
Ntp787
Rp788
(dp789
g6
S'2'
p790
sg8
(dp791
sg14
g580
sg24
S'\n        '
p792
sg16
(lp793
sbag0
(g1
g2
Ntp794
Rp795
(dp796
g6
S'2'
p797
sg8
(dp798
sg14
g580
sg24
S'\n        '
p799
sg16
(lp800
sbag0
(g1
g2
Ntp801
Rp802
(dp803
g8
(dp804
g688
S'true'
p805
ssg14
g580
sg24
S'\n      '
p806
sg16
(lp807
sbasbag0
(g1
g2
Ntp808
Rp809
(dp810
g6
S'\n        '
p811
sg8
(dp812
g192
S'k-p24h-n7-1'
p813
ssg14
S'weather'
p814
sg24
S'\n      '
p815
sg16
(lp816
g0
(g1
g2
Ntp817
Rp818
(dp819
g6
S'Weather Type, Coverage, and Intensity'
p820
sg8
(dp821
sg14
g572
sg24
S'\n        '
p822
sg16
(lp823
sbag0
(g1
g2
Ntp824
Rp825
(dp826
g8
(dp827
S'weather-summary'
p828
S'Sunny'
p829
ssg14
S'weather-conditions'
p830
sg24
S'\n        '
p831
sg16
(lp832
sbag0
(g1
g2
Ntp833
Rp834
(dp835
g8
(dp836
g828
S'Mostly Sunny'
p837
ssg14
g830
sg24
S'\n        '
p838
sg16
(lp839
sbag0
(g1
g2
Ntp840
Rp841
(dp842
g8
(dp843
g828
S'Partly Sunny'
p844
ssg14
g830
sg24
S'\n        '
p845
sg16
(lp846
sbag0
(g1
g2
Ntp847
Rp848
(dp849
g6
S'\n          '
p850
sg8
(dp851
g828
S'Chance Rain Showers'
p852
ssg14
g830
sg24
S'\n        '
p853
sg16
(lp854
g0
(g1
g2
Ntp855
Rp856
(dp857
g8
(dp858
S'intensity'
p859
S'light'
p860
sS'weather-type'
p861
S'rain showers'
p862
sS'coverage'
p863
S'chance'
p864
sS'qualifier'
p865
S'none'
p866
ssg14
g580
sg24
S'\n        '
p867
sg16
(lp868
sbasbag0
(g1
g2
Ntp869
Rp870
(dp871
g8
(dp872
g828
S'Mostly Sunny'
p873
ssg14
g830
sg24
S'\n        '
p874
sg16
(lp875
sbag0
(g1
g2
Ntp876
Rp877
(dp878
g8
(dp879
g828
S'Mostly Sunny'
p880
ssg14
g830
sg24
S'\n        '
p881
sg16
(lp882
sbag0
(g1
g2
Ntp883
Rp884
(dp885
g8
(dp886
g828
S'Sunny'
p887
ssg14
g830
sg24
S'\n      '
p888
sg16
(lp889
sbasbag0
(g1
g2
Ntp890
Rp891
(dp892
g6
S'\n        '
p893
sg8
(dp894
g561
S'forecast-NWS'
p895
sg192
S'k-p24h-n7-1'
p896
ssg14
S'conditions-icon'
p897
sg24
S'\n      '
p898
sg16
(lp899
g0
(g1
g2
Ntp900
Rp901
(dp902
g6
S'Conditions Icons'
p903
sg8
(dp904
sg14
g572
sg24
S'\n        '
p905
sg16
(lp906
sbag0
(g1
g2
Ntp907
Rp908
(dp909
g6
S'http://www.nws.noaa.gov/weather/images/fcicons/skc.jpg'
p910
sg8
(dp911
sg14
S'icon-link'
p912
sg24
S'\n        '
p913
sg16
(lp914
sbag0
(g1
g2
Ntp915
Rp916
(dp917
g6
S'http://www.nws.noaa.gov/weather/images/fcicons/few.jpg'
p918
sg8
(dp919
sg14
g912
sg24
S'\n        '
p920
sg16
(lp921
sbag0
(g1
g2
Ntp922
Rp923
(dp924
g6
S'http://www.nws.noaa.gov/weather/images/fcicons/sct.jpg'
p925
sg8
(dp926
sg14
g912
sg24
S'\n        '
p927
sg16
(lp928
sbag0
(g1
g2
Ntp929
Rp930
(dp931
g6
S'http://www.nws.noaa.gov/weather/images/fcicons/shra30.jpg'
p932
sg8
(dp933
sg14
g912
sg24
S'\n        '
p934
sg16
(lp935
sbag0
(g1
g2
Ntp936
Rp937
(dp938
g6
S'http://www.nws.noaa.gov/weather/images/fcicons/few.jpg'
p939
sg8
(dp940
sg14
g912
sg24
S'\n        '
p941
sg16
(lp942
sbag0
(g1
g2
Ntp943
Rp944
(dp945
g6
S'http://www.nws.noaa.gov/weather/images/fcicons/few.jpg'
p946
sg8
(dp947
sg14
g912
sg24
S'\n        '
p948
sg16
(lp949
sbag0
(g1
g2
Ntp950
Rp951
(dp952
g6
S'http://www.nws.noaa.gov/weather/images/fcicons/skc.jpg'
p953
sg8
(dp954
sg14
g912
sg24
S'\n      '
p955
sg16
(lp956
sbasbag0
(g1
g2
Ntp957
Rp958
(dp959
g6
S'\n        '
p960
sg8
(dp961
g192
S'k-p7d-n1-3'
p962
ssg14
S'hazards'
p963
sg24
S'\n    '
p964
sg16
(lp965
g0
(g1
g2
Ntp966
Rp967
(dp968
g6
S'Watches, Warnings, and Advisories'
p969
sg8
(dp970
sg14
g572
sg24
S'\n        '
p971
sg16
(lp972
sbag0
(g1
g2
Ntp973
Rp974
(dp975
g8
(dp976
g688
S'true'
p977
ssg14
S'hazard-conditions'
p978
sg24
S'\n      '
p979
sg16
(lp980
sbasbasbasbasb.