(dp0
Vresponse
p1
(dp2
VtermsofService
p3
Vhttp://www.wunderground.com/weather/api/d/terms.html
p4
sVversion
p5
V0.1
p6
sVfeatures
p7
(dp8
Vforecast10day
p9
I1
sssVforecast
p10
(dp11
Vtxt_forecast
p12
(dp13
Vdate
p14
V4:58 PM PST
p15
sVforecastday
p16
(lp17
(dp18
Vtitle
p19
VWednesday
p20
sVicon_url
p21
Vhttp://icons.wxug.com/i/c/k/partlycloudy.gif
p22
sVfcttext_metric
p23
VPartly cloudy. Low 5C.
p24
sVperiod
p25
I0
sVpop
p26
V0
p27
sVfcttext
p28
VPartly cloudy. Lows overnight in the low 40s.
p29
sVicon
p30
Vpartlycloudy
p31
sa(dp32
g19
VWednesday Night
p33
sg21
Vhttp://icons.wxug.com/i/c/k/nt_partlycloudy.gif
p34
sg23
VSome clouds. Low around 5C. Winds NNW at 10 to 15 km/h.
p35
sg25
I1
sg26
g27
sg28
VPartly cloudy. Low 41F. Winds NNW at 10 to 15 mph.
p36
sg30
Vnt_partlycloudy
p37
sa(dp38
g19
VThursday
p39
sg21
Vhttp://icons.wxug.com/i/c/k/clear.gif
p40
sg23
VA mainly sunny sky. High 18C. Winds N at 10 to 15 km/h.
p41
sg25
I2
sg26
g27
sg28
VSunny skies. High 64F. Winds N at 5 to 10 mph.
p42
sg30
Vclear
p43
sa(dp44
g19
VThursday Night
p45
sg21
Vhttp://icons.wxug.com/i/c/k/nt_clear.gif
p46
sg23
VClear. Low 4C. Winds light and variable.
p47
sg25
I3
sg26
g27
sg28
VA mostly clear sky. Low 39F. Winds light and variable.
p48
sg30
Vnt_clear
p49
sa(dp50
g19
VFriday
p51
sg21
Vhttp://icons.wxug.com/i/c/k/clear.gif
p52
sg23
VMainly sunny. High near 20C. Winds light and variable.
p53
sg25
I4
sg26
g27
sg28
VSunny skies. High 67F. Winds light and variable.
p54
sg30
Vclear
p55
sa(dp56
g19
VFriday Night
p57
sg21
Vhttp://icons.wxug.com/i/c/k/nt_clear.gif
p58
sg23
VMainly clear early, then a few clouds later on. Low around 5C. Winds SSW at 10 to 15 km/h.
p59
sg25
I5
sg26
g27
sg28
VMainly clear early, then a few clouds later on. Low 41F. Winds SSW at 5 to 10 mph.
p60
sg30
Vnt_clear
p61
sa(dp62
g19
VSaturday
p63
sg21
Vhttp://icons.wxug.com/i/c/k/partlycloudy.gif
p64
sg23
VPartly cloudy. Gusty winds in the afternoon. High 18C. Winds SW at 30 to 50 km/h. Winds could occasionally gust over 65 km/h.
p65
sg25
I6
sg26
g27
sg28
VPartly cloudy skies, with gusty winds developing during the afternoon. High 64F. Winds SW at 20 to 30 mph. Winds could occasionally gust over 40 mph.
p66
sg30
Vpartlycloudy
p67
sa(dp68
g19
VSaturday Night
p69
sg21
Vhttp://icons.wxug.com/i/c/k/nt_partlycloudy.gif
p70
sg23
VPartly cloudy skies. Gusty winds early. Low 4C. Winds SW at 30 to 50 km/h.
p71
sg25
I7
sg26
V20
p72
sg28
VPartly cloudy skies. Gusty winds early. Low 39F. Winds SW at 20 to 30 mph.
p73
sg30
Vnt_partlycloudy
p74
sa(dp75
g19
VSunday
p76
sg21
Vhttp://icons.wxug.com/i/c/k/chancerain.gif
p77
sg23
VA mix of clouds and sun in the morning will give way to cloudy skies and light rain during the afternoon. High 11C. Winds SW at 25 to 40 km/h. Chance of rain 60%.
p78
sg25
I8
sg26
V60
p79
sg28
VA mix of clouds and sun in the morning will give way to cloudy skies and light rain during the afternoon. High 53F. Winds SW at 15 to 25 mph. Chance of rain 60%.
p80
sg30
Vchancerain
p81
sa(dp82
g19
VSunday Night
p83
sg21
Vhttp://icons.wxug.com/i/c/k/nt_clear.gif
p84
sg23
VClear skies. Low 2C. Winds NW at 15 to 30 km/h.
p85
sg25
I9
sg26
V10
p86
sg28
VClear skies. Low 36F. Winds NW at 10 to 20 mph.
p87
sg30
Vnt_clear
p88
sa(dp89
g19
VMonday
p90
sg21
Vhttp://icons.wxug.com/i/c/k/clear.gif
p91
sg23
VMainly sunny. High around 15C. Winds NW at 15 to 25 km/h.
p92
sg25
I10
sg26
g27
sg28
VMainly sunny. High 58F. Winds NW at 10 to 15 mph.
p93
sg30
Vclear
p94
sa(dp95
g19
VMonday Night
p96
sg21
Vhttp://icons.wxug.com/i/c/k/nt_clear.gif
p97
sg23
VA mostly clear sky. Low 3C. Winds NW at 10 to 15 km/h.
p98
sg25
I11
sg26
g27
sg28
VA mostly clear sky. Low 38F. Winds NW at 5 to 10 mph.
p99
sg30
Vnt_clear
p100
sa(dp101
g19
VTuesday
p102
sg21
Vhttp://icons.wxug.com/i/c/k/clear.gif
p103
sg23
VSunny. High 14C. Winds N at 15 to 25 km/h.
p104
sg25
I12
sg26
g27
sg28
VMainly sunny. High 57F. Winds N at 10 to 15 mph.
p105
sg30
Vclear
p106
sa(dp107
g19
VTuesday Night
p108
sg21
Vhttp://icons.wxug.com/i/c/k/nt_clear.gif
p109
sg23
VClear skies. Low 3C. Winds light and variable.
p110
sg25
I13
sg26
g27
sg28
VClear skies. Low 37F. Winds WNW at 5 to 10 mph.
p111
sg30
Vnt_clear
p112
sa(dp113
g19
VWednesday
p114
sg21
Vhttp://icons.wxug.com/i/c/k/clear.gif
p115
sg23
VPlentiful sunshine. High near 15C. Winds SSW at 10 to 15 km/h.
p116
sg25
I14
sg26
g27
sg28
VSunshine. High 59F. Winds SSW at 5 to 10 mph.
p117
sg30
Vclear
p118
sa(dp119
g19
VWednesday Night
p120
sg21
Vhttp://icons.wxug.com/i/c/k/nt_clear.gif
p121
sg23
VPartly cloudy. Low 3C. Winds W at 10 to 15 km/h.
p122
sg25
I15
sg26
g27
sg28
VClear to partly cloudy. Low 37F. Winds W at 10 to 15 mph.
p123
sg30
Vnt_clear
p124
sa(dp125
g19
VThursday
p126
sg21
Vhttp://icons.wxug.com/i/c/k/clear.gif
p127
sg23
VMainly sunny. High 13C. Winds NNW at 15 to 30 km/h.
p128
sg25
I16
sg26
g27
sg28
VMainly sunny. High around 55F. Winds NNW at 10 to 20 mph.
p129
sg30
Vclear
p130
sa(dp131
g19
VThursday Night
p132
sg21
Vhttp://icons.wxug.com/i/c/k/nt_clear.gif
p133
sg23
VClear to partly cloudy. Low near 0C. Winds NNW at 15 to 30 km/h.
p134
sg25
I17
sg26
g27
sg28
VPartly cloudy. Low 32F. Winds NNW at 10 to 20 mph.
p135
sg30
Vnt_clear
p136
sa(dp137
g19
VFriday
p138
sg21
Vhttp://icons.wxug.com/i/c/k/partlycloudy.gif
p139
sg23
VSunshine and clouds mixed. High 11C. Winds N at 25 to 40 km/h.
p140
sg25
I18
sg26
g27
sg28
VSunshine and clouds mixed. High 51F. Winds N at 15 to 25 mph.
p141
sg30
Vpartlycloudy
p142
sa(dp143
g19
VFriday Night
p144
sg21
Vhttp://icons.wxug.com/i/c/k/nt_clear.gif
p145
sg23
VA few clouds overnight. Low 1C. Winds NNW at 15 to 25 km/h.
p146
sg25
I19
sg26
g27
sg28
VPartly cloudy. Low 34F. Winds NNW at 10 to 15 mph.
p147
sg30
Vnt_clear
p148
sassVsimpleforecast
p149
(dp150
g16
(lp151
(dp152
Vavehumidity
p153
I39
sVmaxhumidity
p154
I0
sVavewind
p155
(dp156
Vkph
p157
I7
sVdegrees
p158
I255
sVdir
p159
VWSW
p160
sVmph
p161
I4
ssg21
Vhttp://icons.wxug.com/i/c/k/partlycloudy.gif
p162
sVsnow_allday
p163
(dp164
Vcm
p165
F0.0
sVin
p166
F0.0
ssVmaxwind
p167
(dp168
g157
I20
sg158
I0
sg159
V
p169
sg161
I12
ssVminhumidity
p170
I0
sg25
I1
sg26
I0
sVskyicon
p171
g169
sVhigh
p172
(dp173
Vfahrenheit
p174
V68
p175
sVcelsius
p176
V20
p177
ssVqpf_night
p178
(dp179
Vmm
p180
I0
sg166
F0.0
ssVqpf_allday
p181
(dp182
g180
I0
sg166
F0.0
ssVlow
p183
(dp184
g174
V41
p185
sg176
V5
p186
ssVsnow_night
p187
(dp188
g165
F0.0
sg166
F0.0
ssg14
(dp189
Vtz_short
p190
VPST
p191
sVweekday_short
p192
VWed
p193
sVisdst
p194
g27
sVmonthname
p195
VNovember
p196
sVhour
p197
I19
sVmin
p198
V00
p199
sVampm
p200
VPM
p201
sVtz_long
p202
VAmerica/Los_Angeles
p203
sVmonth
p204
I11
sVepoch
p205
V1479956400
p206
sVsec
p207
I0
sVweekday
p208
VWednesday
p209
sVpretty
p210
V7:00 PM PST on November 23, 2016
p211
sVyear
p212
I2016
sVyday
p213
I327
sVday
p214
I23
sVmonthname_short
p215
VNov
p216
ssVsnow_day
p217
(dp218
g165
Nsg166
NssVqpf_day
p219
(dp220
g180
Nsg166
NssVconditions
p221
VPartly Cloudy
p222
sg30
Vpartlycloudy
p223
sa(dp224
g153
I19
sg154
I0
sg155
(dp225
g157
I13
sg158
I1
sg159
VN
p226
sg161
I8
ssg21
Vhttp://icons.wxug.com/i/c/k/clear.gif
p227
sg163
(dp228
g165
F0.0
sg166
F0.0
ssg167
(dp229
g157
I16
sg158
I1
sg159
g226
sg161
I10
ssg170
I0
sg25
I2
sg26
I0
sg171
g169
sg172
(dp230
g174
V64
p231
sg176
V18
p232
ssg178
(dp233
g180
I0
sg166
F0.0
ssg181
(dp234
g180
I0
sg166
F0.0
ssg183
(dp235
g174
V39
p236
sg176
V4
p237
ssg187
(dp238
g165
F0.0
sg166
F0.0
ssg14
(dp239
g190
VPST
p240
sg192
VThu
p241
sg194
g27
sg195
VNovember
p242
sg197
I19
sg198
V00
p243
sg200
VPM
p244
sg202
VAmerica/Los_Angeles
p245
sg204
I11
sg205
V1480042800
p246
sg207
I0
sg208
VThursday
p247
sg210
V7:00 PM PST on November 24, 2016
p248
sg212
I2016
sg213
I328
sg214
I24
sg215
VNov
p249
ssg217
(dp250
g165
F0.0
sg166
F0.0
ssg219
(dp251
g180
I0
sg166
F0.0
ssg221
VClear
p252
sg30
Vclear
p253
sa(dp254
g153
I13
sg154
I0
sg155
(dp255
g157
I6
sg158
I145
sg159
VSE
p256
sg161
I4
ssg21
Vhttp://icons.wxug.com/i/c/k/clear.gif
p257
sg163
(dp258
g165
F0.0
sg166
F0.0
ssg167
(dp259
g157
I8
sg158
I145
sg159
VSE
p260
sg161
I5
ssg170
I0
sg25
I3
sg26
I0
sg171
g169
sg172
(dp261
g174
V67
p262
sg176
V19
p263
ssg178
(dp264
g180
I0
sg166
F0.0
ssg181
(dp265
g180
I0
sg166
F0.0
ssg183
(dp266
g174
V41
p267
sg176
g186
ssg187
(dp268
g165
F0.0
sg166
F0.0
ssg14
(dp269
g190
VPST
p270
sg192
VFri
p271
sg194
g27
sg195
VNovember
p272
sg197
I19
sg198
V00
p273
sg200
VPM
p274
sg202
VAmerica/Los_Angeles
p275
sg204
I11
sg205
V1480129200
p276
sg207
I0
sg208
VFriday
p277
sg210
V7:00 PM PST on November 25, 2016
p278
sg212
I2016
sg213
I329
sg214
I25
sg215
VNov
p279
ssg217
(dp280
g165
F0.0
sg166
F0.0
ssg219
(dp281
g180
I0
sg166
F0.0
ssg221
VClear
p282
sg30
Vclear
p283
sa(dp284
g153
I24
sg154
I0
sg155
(dp285
g157
I35
sg158
I217
sg159
VSW
p286
sg161
I22
ssg21
Vhttp://icons.wxug.com/i/c/k/partlycloudy.gif
p287
sg163
(dp288
g165
F0.0
sg166
F0.0
ssg167
(dp289
g157
I48
sg158
I217
sg159
VSW
p290
sg161
I30
ssg170
I0
sg25
I4
sg26
I0
sg171
g169
sg172
(dp291
g174
V64
p292
sg176
V18
p293
ssg178
(dp294
g180
I0
sg166
F0.0
ssg181
(dp295
g180
I0
sg166
F0.0
ssg183
(dp296
g174
V39
p297
sg176
g237
ssg187
(dp298
g165
F0.0
sg166
F0.0
ssg14
(dp299
g190
VPST
p300
sg192
VSat
p301
sg194
g27
sg195
VNovember
p302
sg197
I19
sg198
V00
p303
sg200
VPM
p304
sg202
VAmerica/Los_Angeles
p305
sg204
I11
sg205
V1480215600
p306
sg207
I0
sg208
VSaturday
p307
sg210
V7:00 PM PST on November 26, 2016
p308
sg212
I2016
sg213
I330
sg214
I26
sg215
VNov
p309
ssg217
(dp310
g165
F0.0
sg166
F0.0
ssg219
(dp311
g180
I0
sg166
F0.0
ssg221
VPartly Cloudy
p312
sg30
Vpartlycloudy
p313
sa(dp314
g153
I65
sg154
I0
sg155
(dp315
g157
I27
sg158
I234
sg159
VSW
p316
sg161
I17
ssg21
Vhttp://icons.wxug.com/i/c/k/chancerain.gif
p317
sg163
(dp318
g165
F0.0
sg166
F0.0
ssg167
(dp319
g157
I40
sg158
I234
sg159
VSW
p320
sg161
I25
ssg170
I0
sg25
I5
sg26
I60
sg171
g169
sg172
(dp321
g174
V53
p322
sg176
V12
p323
ssg178
(dp324
g180
I0
sg166
F0.0
ssg181
(dp325
g180
I1
sg166
F0.05
ssg183
(dp326
g174
V36
p327
sg176
V2
p328
ssg187
(dp329
g165
F0.0
sg166
F0.0
ssg14
(dp330
g190
VPST
p331
sg192
VSun
p332
sg194
g27
sg195
VNovember
p333
sg197
I19
sg198
V00
p334
sg200
VPM
p335
sg202
VAmerica/Los_Angeles
p336
sg204
I11
sg205
V1480302000
p337
sg207
I0
sg208
VSunday
p338
sg210
V7:00 PM PST on November 27, 2016
p339
sg212
I2016
sg213
I331
sg214
I27
sg215
VNov
p340
ssg217
(dp341
g165
F0.0
sg166
F0.0
ssg219
(dp342
g180
I1
sg166
F0.05
ssg221
VChance of Rain
p343
sg30
Vchancerain
p344
sa(dp345
g153
I29
sg154
I0
sg155
(dp346
g157
I18
sg158
I320
sg159
VNW
p347
sg161
I11
ssg21
Vhttp://icons.wxug.com/i/c/k/clear.gif
p348
sg163
(dp349
g165
F0.0
sg166
F0.0
ssg167
(dp350
g157
I24
sg158
I320
sg159
VNW
p351
sg161
I15
ssg170
I0
sg25
I6
sg26
I0
sg171
g169
sg172
(dp352
g174
V58
p353
sg176
V14
p354
ssg178
(dp355
g180
I0
sg166
F0.0
ssg181
(dp356
g180
I0
sg166
F0.0
ssg183
(dp357
g174
V38
p358
sg176
V3
p359
ssg187
(dp360
g165
F0.0
sg166
F0.0
ssg14
(dp361
g190
VPST
p362
sg192
VMon
p363
sg194
g27
sg195
VNovember
p364
sg197
I19
sg198
V00
p365
sg200
VPM
p366
sg202
VAmerica/Los_Angeles
p367
sg204
I11
sg205
V1480388400
p368
sg207
I0
sg208
VMonday
p369
sg210
V7:00 PM PST on November 28, 2016
p370
sg212
I2016
sg213
I332
sg214
I28
sg215
VNov
p371
ssg217
(dp372
g165
F0.0
sg166
F0.0
ssg219
(dp373
g180
I0
sg166
F0.0
ssg221
VClear
p374
sg30
Vclear
p375
sa(dp376
g153
I30
sg154
I0
sg155
(dp377
g157
I18
sg158
I1
sg159
g226
sg161
I11
ssg21
Vhttp://icons.wxug.com/i/c/k/clear.gif
p378
sg163
(dp379
g165
F0.0
sg166
F0.0
ssg167
(dp380
g157
I24
sg158
I1
sg159
g226
sg161
I15
ssg170
I0
sg25
I7
sg26
I0
sg171
g169
sg172
(dp381
g174
V57
p382
sg176
V14
p383
ssg178
(dp384
g180
I0
sg166
F0.0
ssg181
(dp385
g180
I0
sg166
F0.0
ssg183
(dp386
g174
V37
p387
sg176
g359
ssg187
(dp388
g165
F0.0
sg166
F0.0
ssg14
(dp389
g190
VPST
p390
sg192
VTue
p391
sg194
g27
sg195
VNovember
p392
sg197
I19
sg198
V00
p393
sg200
VPM
p394
sg202
VAmerica/Los_Angeles
p395
sg204
I11
sg205
V1480474800
p396
sg207
I0
sg208
VTuesday
p397
sg210
V7:00 PM PST on November 29, 2016
p398
sg212
I2016
sg213
I333
sg214
I29
sg215
VNov
p399
ssg217
(dp400
g165
F0.0
sg166
F0.0
ssg219
(dp401
g180
I0
sg166
F0.0
ssg221
VClear
p402
sg30
Vclear
p403
sa(dp404
g153
I26
sg154
I0
sg155
(dp405
g157
I11
sg158
I196
sg159
VSSW
p406
sg161
I7
ssg21
Vhttp://icons.wxug.com/i/c/k/clear.gif
p407
sg163
(dp408
g165
F0.0
sg166
F0.0
ssg167
(dp409
g157
I16
sg158
I196
sg159
VSSW
p410
sg161
I10
ssg170
I0
sg25
I8
sg26
I0
sg171
g169
sg172
(dp411
g174
V59
p412
sg176
V15
p413
ssg178
(dp414
g180
I0
sg166
F0.0
ssg181
(dp415
g180
I0
sg166
F0.0
ssg183
(dp416
g174
V37
p417
sg176
g359
ssg187
(dp418
g165
F0.0
sg166
F0.0
ssg14
(dp419
g190
VPST
p420
sg192
VWed
p421
sg194
g27
sg195
VNovember
p422
sg197
I19
sg198
V00
p423
sg200
VPM
p424
sg202
VAmerica/Los_Angeles
p425
sg204
I11
sg205
V1480561200
p426
sg207
I0
sg208
VWednesday
p427
sg210
V7:00 PM PST on November 30, 2016
p428
sg212
I2016
sg213
I334
sg214
I30
sg215
VNov
p429
ssg217
(dp430
g165
F0.0
sg166
F0.0
ssg219
(dp431
g180
I0
sg166
F0.0
ssg221
VClear
p432
sg30
Vclear
p433
sa(dp434
g153
I29
sg154
I0
sg155
(dp435
g157
I21
sg158
I340
sg159
VNNW
p436
sg161
I13
ssg21
Vhttp://icons.wxug.com/i/c/k/clear.gif
p437
sg163
(dp438
g165
F0.0
sg166
F0.0
ssg167
(dp439
g157
I32
sg158
I340
sg159
VNNW
p440
sg161
I20
ssg170
I0
sg25
I9
sg26
I0
sg171
g169
sg172
(dp441
g174
V55
p442
sg176
V13
p443
ssg178
(dp444
g180
I0
sg166
F0.0
ssg181
(dp445
g180
I0
sg166
F0.0
ssg183
(dp446
g174
V32
p447
sg176
g27
ssg187
(dp448
g165
F0.0
sg166
F0.0
ssg14
(dp449
g190
VPST
p450
sg192
VThu
p451
sg194
g27
sg195
VDecember
p452
sg197
I19
sg198
V00
p453
sg200
VPM
p454
sg202
VAmerica/Los_Angeles
p455
sg204
I12
sg205
V1480647600
p456
sg207
I0
sg208
VThursday
p457
sg210
V7:00 PM PST on December 01, 2016
p458
sg212
I2016
sg213
I335
sg214
I1
sg215
VDec
p459
ssg217
(dp460
g165
F0.0
sg166
F0.0
ssg219
(dp461
g180
I0
sg166
F0.0
ssg221
VClear
p462
sg30
Vclear
p463
sa(dp464
g153
I32
sg154
I0
sg155
(dp465
g157
I27
sg158
I350
sg159
g226
sg161
I17
ssg21
Vhttp://icons.wxug.com/i/c/k/partlycloudy.gif
p466
sg163
(dp467
g165
F0.0
sg166
F0.0
ssg167
(dp468
g157
I40
sg158
I350
sg159
g226
sg161
I25
ssg170
I0
sg25
I10
sg26
I0
sg171
g169
sg172
(dp469
g174
V51
p470
sg176
V11
p471
ssg178
(dp472
g180
I0
sg166
F0.0
ssg181
(dp473
g180
I0
sg166
F0.0
ssg183
(dp474
g174
V34
p475
sg176
V1
p476
ssg187
(dp477
g165
F0.0
sg166
F0.0
ssg14
(dp478
g190
VPST
p479
sg192
VFri
p480
sg194
g27
sg195
VDecember
p481
sg197
I19
sg198
V00
p482
sg200
VPM
p483
sg202
VAmerica/Los_Angeles
p484
sg204
I12
sg205
V1480734000
p485
sg207
I0
sg208
VFriday
p486
sg210
V7:00 PM PST on December 02, 2016
p487
sg212
I2016
sg213
I336
sg214
I2
sg215
VDec
p488
ssg217
(dp489
g165
F0.0
sg166
F0.0
ssg219
(dp490
g180
I0
sg166
F0.0
ssg221
VPartly Cloudy
p491
sg30
Vpartlycloudy
p492
sasss.