(dp0
Vresponse
p1
(dp2
VtermsofService
p3
Vhttp://www.wunderground.com/weather/api/d/terms.html
p4
sVversion
p5
V0.1
p6
sVfeatures
p7
(dp8
Vforecast10day
p9
I1
sssVforecast
p10
(dp11
Vtxt_forecast
p12
(dp13
Vdate
p14
V8:13 PM EST
p15
sVforecastday
p16
(lp17
(dp18
Vtitle
p19
VWednesday
p20
sVicon_url
p21
Vhttp://icons.wxug.com/i/c/k/chancerain.gif
p22
sVfcttext_metric
p23
VChance of showers. Low 10C.
p24
sVperiod
p25
I0
sVpop
p26
V50
p27
sVfcttext
p28
VChance of showers. Lows overnight in the low 50s.
p29
sVicon
p30
Vchancerain
p31
sa(dp32
g19
VWednesday Night
p33
sg21
Vhttp://icons.wxug.com/i/c/k/nt_chancerain.gif
p34
sg23
VConsiderable cloudiness with occasional rain showers. Low near 10C. Winds SSW at 10 to 15 km/h. Chance of rain 60%.
p35
sg25
I1
sg26
V50
p36
sg28
VCloudy with occasional rain showers. Low around 50F. Winds SSW at 5 to 10 mph. Chance of rain 50%.
p37
sg30
Vnt_chancerain
p38
sa(dp39
g19
VThursday
p40
sg21
Vhttp://icons.wxug.com/i/c/k/chancerain.gif
p41
sg23
VShowers in the morning, then cloudy in the afternoon. High near 15C. Winds light and variable. Chance of rain 50%.
p42
sg25
I2
sg26
V50
p43
sg28
VRain showers early with overcast skies later in the day. High 59F. Winds light and variable. Chance of rain 50%.
p44
sg30
Vchancerain
p45
sa(dp46
g19
VThursday Night
p47
sg21
Vhttp://icons.wxug.com/i/c/k/nt_cloudy.gif
p48
sg23
VCloudy. Areas of patchy fog developing. Low 6C. Winds light and variable.
p49
sg25
I3
sg26
V20
p50
sg28
VCloudy skies. Areas of patchy fog developing. Low 43F. Winds light and variable.
p51
sg30
Vnt_cloudy
p52
sa(dp53
g19
VFriday
p54
sg21
Vhttp://icons.wxug.com/i/c/k/mostlycloudy.gif
p55
sg23
VMostly cloudy skies. High 13C. Winds W at 10 to 15 km/h.
p56
sg25
I4
sg26
V10
p57
sg28
VMostly cloudy. High 56F. Winds W at 5 to 10 mph.
p58
sg30
Vmostlycloudy
p59
sa(dp60
g19
VFriday Night
p61
sg21
Vhttp://icons.wxug.com/i/c/k/nt_partlycloudy.gif
p62
sg23
VA few clouds. Low 1C. Winds light and variable.
p63
sg25
I5
sg26
V10
p64
sg28
VA few clouds. Low 34F. Winds light and variable.
p65
sg30
Vnt_partlycloudy
p66
sa(dp67
g19
VSaturday
p68
sg21
Vhttp://icons.wxug.com/i/c/k/clear.gif
p69
sg23
VA few passing clouds, otherwise generally sunny. High 9C. Winds light and variable.
p70
sg25
I6
sg26
V10
p71
sg28
VSunshine along with some cloudy intervals. High 48F. Winds light and variable.
p72
sg30
Vclear
p73
sa(dp74
g19
VSaturday Night
p75
sg21
Vhttp://icons.wxug.com/i/c/k/nt_clear.gif
p76
sg23
VClear skies. Low -1C. Winds light and variable.
p77
sg25
I7
sg26
V10
p78
sg28
VClear. Low 29F. Winds light and variable.
p79
sg30
Vnt_clear
p80
sa(dp81
g19
VSunday
p82
sg21
Vhttp://icons.wxug.com/i/c/k/clear.gif
p83
sg23
VMostly sunny skies. High 14C. Winds light and variable.
p84
sg25
I8
sg26
V10
p85
sg28
VMostly sunny skies. High 58F. Winds light and variable.
p86
sg30
Vclear
p87
sa(dp88
g19
VSunday Night
p89
sg21
Vhttp://icons.wxug.com/i/c/k/nt_mostlycloudy.gif
p90
sg23
VPartly cloudy skies during the evening will give way to cloudy skies overnight. Low 6C. Winds light and variable.
p91
sg25
I9
sg26
V0
p92
sg28
VPartly cloudy skies during the evening will give way to cloudy skies overnight. Low 43F. Winds light and variable.
p93
sg30
Vnt_mostlycloudy
p94
sa(dp95
g19
VMonday
p96
sg21
Vhttp://icons.wxug.com/i/c/k/cloudy.gif
p97
sg23
VCloudy skies. High 16C. Winds S at 10 to 15 km/h.
p98
sg25
I10
sg26
V10
p99
sg28
VCloudy skies. High 61F. Winds S at 5 to 10 mph.
p100
sg30
Vcloudy
p101
sa(dp102
g19
VMonday Night
p103
sg21
Vhttp://icons.wxug.com/i/c/k/nt_rain.gif
p104
sg23
VBecoming cloudy with occasional rain after midnight. Low 11C. Winds S at 15 to 25 km/h. Chance of rain 70%.
p105
sg25
I11
sg26
V70
p106
sg28
VCloudy skies with periods of rain after midnight. Low 52F. Winds S at 10 to 15 mph. Chance of rain 70%.
p107
sg30
Vnt_rain
p108
sa(dp109
g19
VTuesday
p110
sg21
Vhttp://icons.wxug.com/i/c/k/chancerain.gif
p111
sg23
VOvercast with rain showers at times. High 18C. Winds SSW at 15 to 25 km/h. Chance of rain 60%.
p112
sg25
I12
sg26
V60
p113
sg28
VOvercast with rain showers at times. High near 65F. Winds SSW at 10 to 15 mph. Chance of rain 60%.
p114
sg30
Vchancerain
p115
sa(dp116
g19
VTuesday Night
p117
sg21
Vhttp://icons.wxug.com/i/c/k/nt_chancerain.gif
p118
sg23
VCloudy with showers. Low 9C. Winds SSW at 10 to 15 km/h. Chance of rain 60%.
p119
sg25
I13
sg26
V60
p120
sg28
VConsiderable cloudiness with occasional rain showers. Low 49F. Winds SSW at 5 to 10 mph. Chance of rain 60%.
p121
sg30
Vnt_chancerain
p122
sa(dp123
g19
VWednesday
p124
sg21
Vhttp://icons.wxug.com/i/c/k/chancerain.gif
p125
sg23
VRain showers early with some sunshine later in the day. High 12C. Winds WSW at 15 to 25 km/h. Chance of rain 40%.
p126
sg25
I14
sg26
V40
p127
sg28
VShowers in the morning, then partly cloudy in the afternoon. High 54F. Winds WSW at 10 to 15 mph. Chance of rain 40%.
p128
sg30
Vchancerain
p129
sa(dp130
g19
VWednesday Night
p131
sg21
Vhttp://icons.wxug.com/i/c/k/nt_chancerain.gif
p132
sg23
VChance of a shower or two during the evening, followed by partly cloudy skies late. Low around 0C. Winds W at 10 to 15 km/h. Chance of rain 30%.
p133
sg25
I15
sg26
V30
p134
sg28
VA shower or two possible early with partly cloudy skies later at night. Low 33F. Winds W at 5 to 10 mph. Chance of rain 30%.
p135
sg30
Vnt_chancerain
p136
sa(dp137
g19
VThursday
p138
sg21
Vhttp://icons.wxug.com/i/c/k/partlycloudy.gif
p139
sg23
VPartly cloudy. High around 10C. Winds WSW at 10 to 15 km/h.
p140
sg25
I16
sg26
V10
p141
sg28
VPartly cloudy. High 49F. Winds WSW at 5 to 10 mph.
p142
sg30
Vpartlycloudy
p143
sa(dp144
g19
VThursday Night
p145
sg21
Vhttp://icons.wxug.com/i/c/k/nt_clear.gif
p146
sg23
VA mostly clear sky. Low -1C. Winds light and variable.
p147
sg25
I17
sg26
V10
p148
sg28
VClear. Low near 30F. Winds light and variable.
p149
sg30
Vnt_clear
p150
sa(dp151
g19
VFriday
p152
sg21
Vhttp://icons.wxug.com/i/c/k/clear.gif
p153
sg23
VGenerally sunny despite a few afternoon clouds. High 12C. Winds light and variable.
p154
sg25
I18
sg26
V10
p155
sg28
VGenerally sunny despite a few afternoon clouds. High 54F. Winds SW at 5 to 10 mph.
p156
sg30
Vclear
p157
sa(dp158
g19
VFriday Night
p159
sg21
Vhttp://icons.wxug.com/i/c/k/nt_partlycloudy.gif
p160
sg23
VPartly cloudy. Low 2C. Winds light and variable.
p161
sg25
I19
sg26
V10
p162
sg28
VPartly cloudy. Low 36F. Winds light and variable.
p163
sg30
Vnt_partlycloudy
p164
sassVsimpleforecast
p165
(dp166
g16
(lp167
(dp168
Vavehumidity
p169
I69
sVmaxhumidity
p170
I0
sVavewind
p171
(dp172
Vkph
p173
I1
sVdegrees
p174
I107
sVdir
p175
VESE
p176
sVmph
p177
I0
ssg21
Vhttp://icons.wxug.com/i/c/k/chancerain.gif
p178
sVsnow_allday
p179
(dp180
Vcm
p181
F0.0
sVin
p182
F0.0
ssVmaxwind
p183
(dp184
g173
I22
sg174
I0
sg175
V
p185
sg177
I14
ssVminhumidity
p186
I0
sg25
I1
sg26
I50
sVskyicon
p187
g185
sVhigh
p188
(dp189
Vfahrenheit
p190
V60
p191
sVcelsius
p192
V15
p193
ssVqpf_night
p194
(dp195
Vmm
p196
I2
sg182
F0.07
ssVqpf_allday
p197
(dp198
g196
I2
sg182
F0.07
ssVlow
p199
(dp200
g190
V50
p201
sg192
V10
p202
ssVsnow_night
p203
(dp204
g181
F0.0
sg182
F0.0
ssg14
(dp205
Vtz_short
p206
VEST
p207
sVweekday_short
p208
VWed
p209
sVisdst
p210
g92
sVmonthname
p211
VNovember
p212
sVhour
p213
I19
sVmin
p214
V00
p215
sVampm
p216
VPM
p217
sVtz_long
p218
VAmerica/New_York
p219
sVmonth
p220
I11
sVepoch
p221
V1479945600
p222
sVsec
p223
I0
sVweekday
p224
VWednesday
p225
sVpretty
p226
V7:00 PM EST on November 23, 2016
p227
sVyear
p228
I2016
sVyday
p229
I327
sVday
p230
I23
sVmonthname_short
p231
VNov
p232
ssVsnow_day
p233
(dp234
g181
Nsg182
NssVqpf_day
p235
(dp236
g196
Nsg182
NssVconditions
p237
VChance of Rain
p238
sg30
Vchancerain
p239
sa(dp240
g169
I82
sg170
I0
sg171
(dp241
g173
I6
sg174
I254
sg175
VWSW
p242
sg177
I4
ssg21
Vhttp://icons.wxug.com/i/c/k/chancerain.gif
p243
sg179
(dp244
g181
F0.0
sg182
F0.0
ssg183
(dp245
g173
I8
sg174
I254
sg175
VWSW
p246
sg177
I5
ssg186
I0
sg25
I2
sg26
I50
sg187
g185
sg188
(dp247
g190
V59
p248
sg192
V15
p249
ssg194
(dp250
g196
I0
sg182
F0.0
ssg197
(dp251
g196
I0
sg182
F0.01
ssg199
(dp252
g190
V43
p253
sg192
V6
p254
ssg203
(dp255
g181
F0.0
sg182
F0.0
ssg14
(dp256
g206
VEST
p257
sg208
VThu
p258
sg210
g92
sg211
VNovember
p259
sg213
I19
sg214
V00
p260
sg216
VPM
p261
sg218
VAmerica/New_York
p262
sg220
I11
sg221
V1480032000
p263
sg223
I0
sg224
VThursday
p264
sg226
V7:00 PM EST on November 24, 2016
p265
sg228
I2016
sg229
I328
sg230
I24
sg231
VNov
p266
ssg233
(dp267
g181
F0.0
sg182
F0.0
ssg235
(dp268
g196
I0
sg182
F0.01
ssg237
VChance of Rain
p269
sg30
Vchancerain
p270
sa(dp271
g169
I74
sg170
I0
sg171
(dp272
g173
I10
sg174
I275
sg175
VW
p273
sg177
I6
ssg21
Vhttp://icons.wxug.com/i/c/k/mostlycloudy.gif
p274
sg179
(dp275
g181
F0.0
sg182
F0.0
ssg183
(dp276
g173
I16
sg174
I275
sg175
g273
sg177
I10
ssg186
I0
sg25
I3
sg26
I10
sg187
g185
sg188
(dp277
g190
V56
p278
sg192
V13
p279
ssg194
(dp280
g196
I0
sg182
F0.0
ssg197
(dp281
g196
I0
sg182
F0.0
ssg199
(dp282
g190
V34
p283
sg192
V1
p284
ssg203
(dp285
g181
F0.0
sg182
F0.0
ssg14
(dp286
g206
VEST
p287
sg208
VFri
p288
sg210
g92
sg211
VNovember
p289
sg213
I19
sg214
V00
p290
sg216
VPM
p291
sg218
VAmerica/New_York
p292
sg220
I11
sg221
V1480118400
p293
sg223
I0
sg224
VFriday
p294
sg226
V7:00 PM EST on November 25, 2016
p295
sg228
I2016
sg229
I329
sg230
I25
sg231
VNov
p296
ssg233
(dp297
g181
F0.0
sg182
F0.0
ssg235
(dp298
g196
I0
sg182
F0.0
ssg237
VMostly Cloudy
p299
sg30
Vmostlycloudy
p300
sa(dp301
g169
I69
sg170
I0
sg171
(dp302
g173
I6
sg174
I301
sg175
VWNW
p303
sg177
I4
ssg21
Vhttp://icons.wxug.com/i/c/k/clear.gif
p304
sg179
(dp305
g181
F0.0
sg182
F0.0
ssg183
(dp306
g173
I8
sg174
I301
sg175
VWNW
p307
sg177
I5
ssg186
I0
sg25
I4
sg26
I10
sg187
g185
sg188
(dp308
g190
V48
p309
sg192
V9
p310
ssg194
(dp311
g196
I0
sg182
F0.0
ssg197
(dp312
g196
I0
sg182
F0.0
ssg199
(dp313
g190
V29
p314
sg192
V-2
p315
ssg203
(dp316
g181
F0.0
sg182
F0.0
ssg14
(dp317
g206
VEST
p318
sg208
VSat
p319
sg210
g92
sg211
VNovember
p320
sg213
I19
sg214
V00
p321
sg216
VPM
p322
sg218
VAmerica/New_York
p323
sg220
I11
sg221
V1480204800
p324
sg223
I0
sg224
VSaturday
p325
sg226
V7:00 PM EST on November 26, 2016
p326
sg228
I2016
sg229
I330
sg230
I26
sg231
VNov
p327
ssg233
(dp328
g181
F0.0
sg182
F0.0
ssg235
(dp329
g196
I0
sg182
F0.0
ssg237
VClear
p330
sg30
Vclear
p331
sa(dp332
g169
I55
sg170
I0
sg171
(dp333
g173
I6
sg174
I194
sg175
VSSW
p334
sg177
I4
ssg21
Vhttp://icons.wxug.com/i/c/k/clear.gif
p335
sg179
(dp336
g181
F0.0
sg182
F0.0
ssg183
(dp337
g173
I8
sg174
I194
sg175
VSSW
p338
sg177
I5
ssg186
I0
sg25
I5
sg26
I10
sg187
g185
sg188
(dp339
g190
V58
p340
sg192
V14
p341
ssg194
(dp342
g196
I0
sg182
F0.0
ssg197
(dp343
g196
I0
sg182
F0.0
ssg199
(dp344
g190
V43
p345
sg192
g254
ssg203
(dp346
g181
F0.0
sg182
F0.0
ssg14
(dp347
g206
VEST
p348
sg208
VSun
p349
sg210
g92
sg211
VNovember
p350
sg213
I19
sg214
V00
p351
sg216
VPM
p352
sg218
VAmerica/New_York
p353
sg220
I11
sg221
V1480291200
p354
sg223
I0
sg224
VSunday
p355
sg226
V7:00 PM EST on November 27, 2016
p356
sg228
I2016
sg229
I331
sg230
I27
sg231
VNov
p357
ssg233
(dp358
g181
F0.0
sg182
F0.0
ssg235
(dp359
g196
I0
sg182
F0.0
ssg237
VClear
p360
sg30
Vclear
p361
sa(dp362
g169
I45
sg170
I0
sg171
(dp363
g173
I11
sg174
I188
sg175
VS
p364
sg177
I7
ssg21
Vhttp://icons.wxug.com/i/c/k/cloudy.gif
p365
sg179
(dp366
g181
F0.0
sg182
F0.0
ssg183
(dp367
g173
I16
sg174
I188
sg175
g364
sg177
I10
ssg186
I0
sg25
I6
sg26
I10
sg187
g185
sg188
(dp368
g190
V61
p369
sg192
V16
p370
ssg194
(dp371
g196
I4
sg182
F0.16
ssg197
(dp372
g196
I4
sg182
F0.16
ssg199
(dp373
g190
V52
p374
sg192
V11
p375
ssg203
(dp376
g181
F0.0
sg182
F0.0
ssg14
(dp377
g206
VEST
p378
sg208
VMon
p379
sg210
g92
sg211
VNovember
p380
sg213
I19
sg214
V00
p381
sg216
VPM
p382
sg218
VAmerica/New_York
p383
sg220
I11
sg221
V1480377600
p384
sg223
I0
sg224
VMonday
p385
sg226
V7:00 PM EST on November 28, 2016
p386
sg228
I2016
sg229
I332
sg230
I28
sg231
VNov
p387
ssg233
(dp388
g181
F0.0
sg182
F0.0
ssg235
(dp389
g196
I0
sg182
F0.0
ssg237
VOvercast
p390
sg30
Vcloudy
p391
sa(dp392
g169
I71
sg170
I0
sg171
(dp393
g173
I19
sg174
I201
sg175
VSSW
p394
sg177
I12
ssg21
Vhttp://icons.wxug.com/i/c/k/chancerain.gif
p395
sg179
(dp396
g181
F0.0
sg182
F0.0
ssg183
(dp397
g173
I24
sg174
I201
sg175
VSSW
p398
sg177
I15
ssg186
I0
sg25
I7
sg26
I60
sg187
g185
sg188
(dp399
g190
V65
p400
sg192
V18
p401
ssg194
(dp402
g196
I4
sg182
F0.16
ssg197
(dp403
g196
I11
sg182
F0.42
ssg199
(dp404
g190
V49
p405
sg192
g310
ssg203
(dp406
g181
F0.0
sg182
F0.0
ssg14
(dp407
g206
VEST
p408
sg208
VTue
p409
sg210
g92
sg211
VNovember
p410
sg213
I19
sg214
V00
p411
sg216
VPM
p412
sg218
VAmerica/New_York
p413
sg220
I11
sg221
V1480464000
p414
sg223
I0
sg224
VTuesday
p415
sg226
V7:00 PM EST on November 29, 2016
p416
sg228
I2016
sg229
I333
sg230
I29
sg231
VNov
p417
ssg233
(dp418
g181
F0.0
sg182
F0.0
ssg235
(dp419
g196
I7
sg182
F0.26
ssg237
VChance of Rain
p420
sg30
Vchancerain
p421
sa(dp422
g169
I76
sg170
I0
sg171
(dp423
g173
I18
sg174
I253
sg175
VWSW
p424
sg177
I11
ssg21
Vhttp://icons.wxug.com/i/c/k/chancerain.gif
p425
sg179
(dp426
g181
F0.0
sg182
F0.0
ssg183
(dp427
g173
I24
sg174
I253
sg175
VWSW
p428
sg177
I15
ssg186
I0
sg25
I8
sg26
I40
sg187
g185
sg188
(dp429
g190
V54
p430
sg192
V12
p431
ssg194
(dp432
g196
I1
sg182
F0.02
ssg197
(dp433
g196
I2
sg182
F0.07
ssg199
(dp434
g190
V33
p435
sg192
g284
ssg203
(dp436
g181
F0.0
sg182
F0.0
ssg14
(dp437
g206
VEST
p438
sg208
VWed
p439
sg210
g92
sg211
VNovember
p440
sg213
I19
sg214
V00
p441
sg216
VPM
p442
sg218
VAmerica/New_York
p443
sg220
I11
sg221
V1480550400
p444
sg223
I0
sg224
VWednesday
p445
sg226
V7:00 PM EST on November 30, 2016
p446
sg228
I2016
sg229
I334
sg230
I30
sg231
VNov
p447
ssg233
(dp448
g181
F0.0
sg182
F0.0
ssg235
(dp449
g196
I1
sg182
F0.05
ssg237
VChance of Rain
p450
sg30
Vchancerain
p451
sa(dp452
g169
I61
sg170
I0
sg171
(dp453
g173
I14
sg174
I258
sg175
VWSW
p454
sg177
I9
ssg21
Vhttp://icons.wxug.com/i/c/k/partlycloudy.gif
p455
sg179
(dp456
g181
F0.0
sg182
F0.0
ssg183
(dp457
g173
I16
sg174
I258
sg175
VWSW
p458
sg177
I10
ssg186
I0
sg25
I9
sg26
I10
sg187
g185
sg188
(dp459
g190
V49
p460
sg192
g310
ssg194
(dp461
g196
I0
sg182
F0.0
ssg197
(dp462
g196
I0
sg182
F0.0
ssg199
(dp463
g190
V30
p464
sg192
V-1
p465
ssg203
(dp466
g181
F0.0
sg182
F0.0
ssg14
(dp467
g206
VEST
p468
sg208
VThu
p469
sg210
g92
sg211
VDecember
p470
sg213
I19
sg214
V00
p471
sg216
VPM
p472
sg218
VAmerica/New_York
p473
sg220
I12
sg221
V1480636800
p474
sg223
I0
sg224
VThursday
p475
sg226
V7:00 PM EST on December 01, 2016
p476
sg228
I2016
sg229
I335
sg230
I1
sg231
VDec
p477
ssg233
(dp478
g181
F0.0
sg182
F0.0
ssg235
(dp479
g196
I0
sg182
F0.0
ssg237
VPartly Cloudy
p480
sg30
Vpartlycloudy
p481
sa(dp482
g169
I57
sg170
I0
sg171
(dp483
g173
I10
sg174
I225
sg175
VSW
p484
sg177
I6
ssg21
Vhttp://icons.wxug.com/i/c/k/clear.gif
p485
sg179
(dp486
g181
F0.0
sg182
F0.0
ssg183
(dp487
g173
I16
sg174
I225
sg175
VSW
p488
sg177
I10
ssg186
I0
sg25
I10
sg26
I10
sg187
g185
sg188
(dp489
g190
V54
p490
sg192
V12
p491
ssg194
(dp492
g196
I0
sg182
F0.0
ssg197
(dp493
g196
I0
sg182
F0.0
ssg199
(dp494
g190
V36
p495
sg192
V2
p496
ssg203
(dp497
g181
F0.0
sg182
F0.0
ssg14
(dp498
g206
VEST
p499
sg208
VFri
p500
sg210
g92
sg211
VDecember
p501
sg213
I19
sg214
V00
p502
sg216
VPM
p503
sg218
VAmerica/New_York
p504
sg220
I12
sg221
V1480723200
p505
sg223
I0
sg224
VFriday
p506
sg226
V7:00 PM EST on December 02, 2016
p507
sg228
I2016
sg229
I336
sg230
I2
sg231
VDec
p508
ssg233
(dp509
g181
F0.0
sg182
F0.0
ssg235
(dp510
g196
I0
sg182
F0.0
ssg237
VClear
p511
sg30
Vclear
p512
sasss.